	.text
	.syntax unified
	.eabi_attribute	67, "2.09"	@ Tag_conformance
	.cpu	cortex-m23
	.eabi_attribute	6, 16	@ Tag_CPU_arch
	.eabi_attribute	7, 77	@ Tag_CPU_arch_profile
	.eabi_attribute	8, 0	@ Tag_ARM_ISA_use
	.eabi_attribute	9, 3	@ Tag_THUMB_ISA_use
	.eabi_attribute	34, 0	@ Tag_CPU_unaligned_access
	.eabi_attribute	17, 1	@ Tag_ABI_PCS_GOT_use
	.eabi_attribute	20, 2	@ Tag_ABI_FP_denormal
	.eabi_attribute	21, 0	@ Tag_ABI_FP_exceptions
	.eabi_attribute	23, 1	@ Tag_ABI_FP_number_model
	.eabi_attribute	24, 1	@ Tag_ABI_align_needed
	.eabi_attribute	25, 1	@ Tag_ABI_align_preserved
	.eabi_attribute	38, 1	@ Tag_ABI_FP_16bit_format
	.eabi_attribute	18, 2	@ Tag_ABI_PCS_wchar_t
	.eabi_attribute	26, 1	@ Tag_ABI_enum_size
	.eabi_attribute	14, 0	@ Tag_ABI_PCS_R9_use
	.file	"main.c"
	.file	1 "C:\\" "Keil_v5\\ARM\\ARMCLANG\\Bin\\..\\include\\stdint.h"
	.file	2 "C:\\Work\\Keil WorkSpace\\Furbo\\Keil" "../Core/Src/main.c"
	.file	3 "C:\\Work\\Keil WorkSpace\\Furbo\\Keil" "../../Library/Nuvoton/M251_252_Series/Device/Nuvoton/M251/Include/uart_reg.h"
	.file	4 "C:\\Work\\Keil WorkSpace\\Furbo\\Keil" "../../Library/Nuvoton/M251_252_Series/Device/Nuvoton/M251/Include/sys_reg.h"
	.hidden	SYS_Init                @ -- Begin function SYS_Init
	.globl	SYS_Init
	.p2align	2
	.type	SYS_Init,%function
	.code	16                      @ @SYS_Init
	.thumb_func
SYS_Init:
.Lfunc_begin0:
	.loc	2 29 0                  @ ../Core/Src/main.c:29:0
	.fnstart
	.cfi_sections .debug_frame
	.cfi_startproc
@ %bb.0:
	.save	{r7, lr}
	push	{r7, lr}
	.cfi_def_cfa_offset 8
	.cfi_offset lr, -4
	.cfi_offset r7, -8
	.pad	#16
	sub	sp, #16
	.cfi_def_cfa_offset 24
.Ltmp0:
	.loc	2 35 5 prologue_end     @ ../Core/Src/main.c:35:5
	bl	SYS_UnlockReg
	movs	r0, #4
	.loc	2 38 5                  @ ../Core/Src/main.c:38:5
	bl	CLK_EnableXtalRC
	movs	r0, #16
	.loc	2 41 5                  @ ../Core/Src/main.c:41:5
	bl	CLK_WaitClockReady
	movs	r1, #7
	movs	r2, #0
	.loc	2 44 5                  @ ../Core/Src/main.c:44:5
	str	r0, [sp, #12]           @ 4-byte Spill
	mov	r0, r1
	mov	r1, r2
	str	r2, [sp, #8]            @ 4-byte Spill
	bl	CLK_SetHCLK
	ldr	r0, __arm_cp.0_0
	.loc	2 47 5                  @ ../Core/Src/main.c:47:5
	str	r0, [sp, #4]            @ 4-byte Spill
	bl	CLK_EnableModuleClock
	movs	r0, #3
	lsls	r1, r0, #24
	.loc	2 50 5                  @ ../Core/Src/main.c:50:5
	ldr	r0, [sp, #4]            @ 4-byte Reload
	ldr	r2, [sp, #8]            @ 4-byte Reload
	bl	CLK_SetModuleClock
	.loc	2 54 5                  @ ../Core/Src/main.c:54:5
	bl	SystemCoreClockUpdate
	.loc	2 59 5                  @ ../Core/Src/main.c:59:5
	bl	Uart0DefaultMPF
	.loc	2 62 5                  @ ../Core/Src/main.c:62:5
	bl	SYS_LockReg
	.loc	2 63 1                  @ ../Core/Src/main.c:63:1
	add	sp, #16
	pop	{r7, pc}
.Ltmp1:
	.p2align	2
@ %bb.1:
	.loc	2 0 1 is_stmt 0         @ ../Core/Src/main.c:0:1
__arm_cp.0_0:
	.long	1602239760              @ 0x5f803d10
.Lcpi_end0:
	.size	__arm_cp.0_0, .Lcpi_end0-__arm_cp.0_0
.Lfunc_end0:
	.size	SYS_Init, .Lfunc_end0-SYS_Init
	.cfi_endproc
	.cantunwind
	.fnend
                                        @ -- End function
	.p2align	2               @ -- Begin function SYS_UnlockReg
	.type	SYS_UnlockReg,%function
	.code	16                      @ @SYS_UnlockReg
	.thumb_func
SYS_UnlockReg:
.Lfunc_begin1:
	.file	5 "C:\\Work\\Keil WorkSpace\\Furbo\\Keil" "../../Library/Nuvoton/M251_252_Series/StdDriver/inc\\sys.h"
	.loc	5 1183 0 is_stmt 1      @ ../../Library/Nuvoton/M251_252_Series/StdDriver/inc\sys.h:1183:0
	.fnstart
	.cfi_startproc
@ %bb.0:
	.loc	5 1184 5 prologue_end   @ ../../Library/Nuvoton/M251_252_Series/StdDriver/inc\sys.h:1184:5
	b	.LBB1_1
.LBB1_1:                                @ =>This Inner Loop Header: Depth=1
	.loc	5 0 5 is_stmt 0         @ ../../Library/Nuvoton/M251_252_Series/StdDriver/inc\sys.h:0:5
	ldr	r0, __arm_cp.1_0
	movs	r1, #89
.Ltmp2:
	.loc	5 1186 22 is_stmt 1     @ ../../Library/Nuvoton/M251_252_Series/StdDriver/inc\sys.h:1186:22
	str	r1, [r0]
	movs	r1, #22
	.loc	5 1187 22               @ ../../Library/Nuvoton/M251_252_Series/StdDriver/inc\sys.h:1187:22
	str	r1, [r0]
	movs	r1, #136
	.loc	5 1188 22               @ ../../Library/Nuvoton/M251_252_Series/StdDriver/inc\sys.h:1188:22
	str	r1, [r0]
	.loc	5 1189 5                @ ../../Library/Nuvoton/M251_252_Series/StdDriver/inc\sys.h:1189:5
	b	.LBB1_2
.Ltmp3:
.LBB1_2:                                @   in Loop: Header=BB1_1 Depth=1
	.loc	5 0 5 is_stmt 0         @ ../../Library/Nuvoton/M251_252_Series/StdDriver/inc\sys.h:0:5
	ldr	r0, __arm_cp.1_0
	.loc	5 1189 19               @ ../../Library/Nuvoton/M251_252_Series/StdDriver/inc\sys.h:1189:19
	ldr	r0, [r0]
.Ltmp4:
	.loc	5 1189 5                @ ../../Library/Nuvoton/M251_252_Series/StdDriver/inc\sys.h:1189:5
	cmp	r0, #0
	beq	.LBB1_1
	b	.LBB1_3
.Ltmp5:
.LBB1_3:
	.loc	5 1190 1 is_stmt 1      @ ../../Library/Nuvoton/M251_252_Series/StdDriver/inc\sys.h:1190:1
	bx	lr
.Ltmp6:
	.p2align	2
@ %bb.4:
	.loc	5 0 1 is_stmt 0         @ ../../Library/Nuvoton/M251_252_Series/StdDriver/inc\sys.h:0:1
__arm_cp.1_0:
	.long	1073742080              @ 0x40000100
.Lcpi_end1:
	.size	__arm_cp.1_0, .Lcpi_end1-__arm_cp.1_0
.Lfunc_end1:
	.size	SYS_UnlockReg, .Lfunc_end1-SYS_UnlockReg
	.cfi_endproc
	.cantunwind
	.fnend
                                        @ -- End function
	.p2align	2               @ -- Begin function SYS_LockReg
	.type	SYS_LockReg,%function
	.code	16                      @ @SYS_LockReg
	.thumb_func
SYS_LockReg:
.Lfunc_begin2:
	.loc	5 1200 0 is_stmt 1      @ ../../Library/Nuvoton/M251_252_Series/StdDriver/inc\sys.h:1200:0
	.fnstart
	.cfi_startproc
@ %bb.0:
	ldr	r0, __arm_cp.2_0
	movs	r1, #0
.Ltmp7:
	.loc	5 1201 18 prologue_end  @ ../../Library/Nuvoton/M251_252_Series/StdDriver/inc\sys.h:1201:18
	str	r1, [r0]
	.loc	5 1202 1                @ ../../Library/Nuvoton/M251_252_Series/StdDriver/inc\sys.h:1202:1
	bx	lr
.Ltmp8:
	.p2align	2
@ %bb.1:
	.loc	5 0 1 is_stmt 0         @ ../../Library/Nuvoton/M251_252_Series/StdDriver/inc\sys.h:0:1
__arm_cp.2_0:
	.long	1073742080              @ 0x40000100
.Lcpi_end2:
	.size	__arm_cp.2_0, .Lcpi_end2-__arm_cp.2_0
.Lfunc_end2:
	.size	SYS_LockReg, .Lfunc_end2-SYS_LockReg
	.cfi_endproc
	.cantunwind
	.fnend
                                        @ -- End function
	.hidden	main                    @ -- Begin function main
	.globl	main
	.p2align	2
	.type	main,%function
	.code	16                      @ @main
	.thumb_func
main:
.Lfunc_begin3:
	.loc	2 76 0 is_stmt 1        @ ../Core/Src/main.c:76:0
	.fnstart
	.cfi_startproc
@ %bb.0:
	.save	{r7, lr}
	push	{r7, lr}
	.cfi_def_cfa_offset 8
	.cfi_offset lr, -4
	.cfi_offset r7, -8
	.pad	#24
	sub	sp, #24
	.cfi_def_cfa_offset 32
	movs	r0, #0
	str	r0, [sp, #20]
.Ltmp9:
	.loc	2 78 5 prologue_end     @ ../Core/Src/main.c:78:5
	bl	SYS_Init
	movs	r0, #225
	lsls	r1, r0, #9
	ldr	r0, __arm_cp.3_0
	.loc	2 81 5                  @ ../Core/Src/main.c:81:5
	bl	UART_Open
	.loc	2 82 2                  @ ../Core/Src/main.c:82:2
	bl	MyUart_Init
	.loc	2 83 2                  @ ../Core/Src/main.c:83:2
	str	r0, [sp, #8]            @ 4-byte Spill
	bl	MyGPIO_Init
	.loc	2 84 2                  @ ../Core/Src/main.c:84:2
	str	r0, [sp, #4]            @ 4-byte Spill
	bl	MyMoto_Init
	.loc	2 85 2                  @ ../Core/Src/main.c:85:2
	ldr	r1, __arm_cp.3_1
	str	r0, [sp]                @ 4-byte Spill
	mov	r0, r1
	bl	printf
	.loc	2 86 5                  @ ../Core/Src/main.c:86:5
	b	.LBB3_1
.LBB3_1:                                @ =>This Inner Loop Header: Depth=1
.Ltmp10:
	.loc	2 88 6                  @ ../Core/Src/main.c:88:6
	bl	MyCLI_ProcessCmdInput
.Ltmp11:
	.loc	2 88 6 is_stmt 0        @ ../Core/Src/main.c:88:6
	cmp	r0, #0
	beq	.LBB3_3
	b	.LBB3_2
.LBB3_2:                                @   in Loop: Header=BB3_1 Depth=1
.Ltmp12:
	.loc	2 92 5 is_stmt 1        @ ../Core/Src/main.c:92:5
	ldr	r0, __arm_cp.3_2
	bl	printf
	.loc	2 94 3                  @ ../Core/Src/main.c:94:3
	b	.LBB3_3
.Ltmp13:
.LBB3_3:                                @   in Loop: Header=BB3_1 Depth=1
	.loc	2 86 5                  @ ../Core/Src/main.c:86:5
	b	.LBB3_1
.Ltmp14:
	.p2align	2
@ %bb.4:
	.loc	2 0 5 is_stmt 0         @ ../Core/Src/main.c:0:5
__arm_cp.3_0:
	.long	1074200576              @ 0x40070000
.Lcpi_end3:
	.size	__arm_cp.3_0, .Lcpi_end3-__arm_cp.3_0
__arm_cp.3_1:
	.long	.L.str
.Lcpi_end4:
	.size	__arm_cp.3_1, .Lcpi_end4-__arm_cp.3_1
__arm_cp.3_2:
	.long	.L.str.1
.Lcpi_end5:
	.size	__arm_cp.3_2, .Lcpi_end5-__arm_cp.3_2
.Lfunc_end3:
	.size	main, .Lfunc_end3-main
	.cfi_endproc
	.cantunwind
	.fnend
                                        @ -- End function
	.hidden	UART0_IRQHandler        @ -- Begin function UART0_IRQHandler
	.globl	UART0_IRQHandler
	.p2align	1
	.type	UART0_IRQHandler,%function
	.code	16                      @ @UART0_IRQHandler
	.thumb_func
UART0_IRQHandler:
.Lfunc_begin4:
	.loc	2 129 0 is_stmt 1       @ ../Core/Src/main.c:129:0
	.fnstart
	.cfi_startproc
@ %bb.0:
	.save	{r7, lr}
	push	{r7, lr}
	.cfi_def_cfa_offset 8
	.cfi_offset lr, -4
	.cfi_offset r7, -8
.Ltmp15:
	.loc	2 130 2 prologue_end    @ ../Core/Src/main.c:130:2
	bl	MyUart_IRQHandler
	.loc	2 131 1                 @ ../Core/Src/main.c:131:1
	pop	{r7, pc}
.Ltmp16:
.Lfunc_end4:
	.size	UART0_IRQHandler, .Lfunc_end4-UART0_IRQHandler
	.cfi_endproc
	.cantunwind
	.fnend
                                        @ -- End function
	.hidden	g_au8RecData            @ @g_au8RecData
	.type	g_au8RecData,%object
	.section	.bss.g_au8RecData,"aw",%nobits
	.globl	g_au8RecData
g_au8RecData:
.Lg_au8RecData$local:
	.zero	1024
	.size	g_au8RecData, 1024

	.hidden	g_u32ComRbytes          @ @g_u32ComRbytes
	.type	g_u32ComRbytes,%object
	.section	.bss.g_u32ComRbytes,"aw",%nobits
	.globl	g_u32ComRbytes
	.p2align	2
g_u32ComRbytes:
.Lg_u32ComRbytes$local:
	.long	0                       @ 0x0
	.size	g_u32ComRbytes, 4

	.hidden	g_u32ComRhead           @ @g_u32ComRhead
	.type	g_u32ComRhead,%object
	.section	.bss.g_u32ComRhead,"aw",%nobits
	.globl	g_u32ComRhead
	.p2align	2
g_u32ComRhead:
.Lg_u32ComRhead$local:
	.long	0                       @ 0x0
	.size	g_u32ComRhead, 4

	.hidden	g_u32ComRtail           @ @g_u32ComRtail
	.type	g_u32ComRtail,%object
	.section	.bss.g_u32ComRtail,"aw",%nobits
	.globl	g_u32ComRtail
	.p2align	2
g_u32ComRtail:
.Lg_u32ComRtail$local:
	.long	0                       @ 0x0
	.size	g_u32ComRtail, 4

	.hidden	g_i32Wait               @ @g_i32Wait
	.type	g_i32Wait,%object
	.section	.data.g_i32Wait,"aw",%progbits
	.globl	g_i32Wait
	.p2align	2
g_i32Wait:
.Lg_i32Wait$local:
	.long	1                       @ 0x1
	.size	g_i32Wait, 4

	.type	.L.str,%object          @ @.str
	.section	.rodata.str1.1,"aMS",%progbits,1
.L.str:
	.asciz	"\nStart Main loop\n"
	.size	.L.str, 18

	.type	.L.str.1,%object        @ @.str.1
.L.str.1:
	.asciz	">"
	.size	.L.str.1, 2

	.section	".note.GNU-stack","",%progbits
	.eabi_attribute	30, 6	@ Tag_ABI_optimization_goals
	.ARM_attribute	16, 1	@ Tag_AV_eba