	.text
	.syntax unified
	.eabi_attribute	67, "2.09"	@ Tag_conformance
	.cpu	cortex-m23
	.eabi_attribute	6, 16	@ Tag_CPU_arch
	.eabi_attribute	7, 77	@ Tag_CPU_arch_profile
	.eabi_attribute	8, 0	@ Tag_ARM_ISA_use
	.eabi_attribute	9, 3	@ Tag_THUMB_ISA_use
	.eabi_attribute	34, 0	@ Tag_CPU_unaligned_access
	.eabi_attribute	17, 1	@ Tag_ABI_PCS_GOT_use
	.eabi_attribute	20, 2	@ Tag_ABI_FP_denormal
	.eabi_attribute	21, 0	@ Tag_ABI_FP_exceptions
	.eabi_attribute	23, 1	@ Tag_ABI_FP_number_model
	.eabi_attribute	24, 1	@ Tag_ABI_align_needed
	.eabi_attribute	25, 1	@ Tag_ABI_align_preserved
	.eabi_attribute	38, 1	@ Tag_ABI_FP_16bit_format
	.eabi_attribute	18, 2	@ Tag_ABI_PCS_wchar_t
	.eabi_attribute	26, 1	@ Tag_ABI_enum_size
	.eabi_attribute	14, 0	@ Tag_ABI_PCS_R9_use
	.file	"My_Func.c"
	.file	1 "C:\\Work\\Keil WorkSpace\\Furbo\\Keil" "../MYx/Src/My_Func.c"
	.hidden	int2str                 @ -- Begin function int2str
	.globl	int2str
	.p2align	2
	.type	int2str,%function
	.code	16                      @ @int2str
	.thumb_func
int2str:
.Lfunc_begin0:
	.loc	1 13 0                  @ ../MYx/Src/My_Func.c:13:0
	.fnstart
	.cfi_sections .debug_frame
	.cfi_startproc
@ %bb.0:
	.save	{r7, lr}
	push	{r7, lr}
	.cfi_def_cfa_offset 8
	.cfi_offset lr, -4
	.cfi_offset r7, -8
	.pad	#16
	sub	sp, #16
	.cfi_def_cfa_offset 24
	str	r0, [sp, #12]
.Ltmp0:
	.loc	1 14 36 prologue_end    @ ../MYx/Src/My_Func.c:14:36
	ldr	r0, [sp, #12]
	.loc	1 14 15 is_stmt 0       @ ../MYx/Src/My_Func.c:14:15
	str	r0, [sp, #8]
	.loc	1 16 23 is_stmt 1       @ ../MYx/Src/My_Func.c:16:23
	ldr	r2, [sp, #8]
	.loc	1 16 4 is_stmt 0        @ ../MYx/Src/My_Func.c:16:4
	ldr	r0, __arm_cp.0_0
	ldr	r1, __arm_cp.0_1
	str	r0, [sp, #4]            @ 4-byte Spill
	bl	sprintf
	.loc	1 17 4 is_stmt 1        @ ../MYx/Src/My_Func.c:17:4
	ldr	r1, [sp, #4]            @ 4-byte Reload
	str	r0, [sp]                @ 4-byte Spill
	mov	r0, r1
	add	sp, #16
	pop	{r7, pc}
.Ltmp1:
	.p2align	2
@ %bb.1:
	.loc	1 0 4 is_stmt 0         @ ../MYx/Src/My_Func.c:0:4
__arm_cp.0_0:
	.long	int2str.str
.Lcpi_end0:
	.size	__arm_cp.0_0, .Lcpi_end0-__arm_cp.0_0
__arm_cp.0_1:
	.long	.L.str
.Lcpi_end1:
	.size	__arm_cp.0_1, .Lcpi_end1-__arm_cp.0_1
.Lfunc_end0:
	.size	int2str, .Lfunc_end0-int2str
	.cfi_endproc
	.cantunwind
	.fnend
                                        @ -- End function
	.hidden	My_CharDowncase         @ -- Begin function My_CharDowncase
	.globl	My_CharDowncase
	.p2align	1
	.type	My_CharDowncase,%function
	.code	16                      @ @My_CharDowncase
	.thumb_func
My_CharDowncase:
.Lfunc_begin1:
	.loc	1 21 0 is_stmt 1        @ ../MYx/Src/My_Func.c:21:0
	.fnstart
	.cfi_startproc
@ %bb.0:
	.pad	#8
	sub	sp, #8
	.cfi_def_cfa_offset 8
	mov	r1, r0
	mov	r2, sp
	strb	r0, [r2]
.Ltmp2:
	.loc	1 22 14 prologue_end    @ ../MYx/Src/My_Func.c:22:14
	ldrb	r0, [r2]
	.loc	1 22 16 is_stmt 0       @ ../MYx/Src/My_Func.c:22:16
	cmp	r0, #65
	blt	.LBB1_3
	b	.LBB1_1
.LBB1_1:
	.loc	1 0 16                  @ ../MYx/Src/My_Func.c:0:16
	mov	r0, sp
	.loc	1 22 19                 @ ../MYx/Src/My_Func.c:22:19
	ldrb	r0, [r0]
.Ltmp3:
	.loc	1 22 7                  @ ../MYx/Src/My_Func.c:22:7
	cmp	r0, #90
	bgt	.LBB1_3
	b	.LBB1_2
.LBB1_2:
.Ltmp4:
	.loc	1 23 12 is_stmt 1       @ ../MYx/Src/My_Func.c:23:12
	ldr	r0, [sp]
	.loc	1 23 20 is_stmt 0       @ ../MYx/Src/My_Func.c:23:20
	adds	r0, #32
	add	r1, sp, #4
	.loc	1 23 5                  @ ../MYx/Src/My_Func.c:23:5
	strb	r0, [r1]
	b	.LBB1_4
.LBB1_3:
	.loc	1 25 12 is_stmt 1       @ ../MYx/Src/My_Func.c:25:12
	ldr	r0, [sp]
	add	r1, sp, #4
	.loc	1 25 5 is_stmt 0        @ ../MYx/Src/My_Func.c:25:5
	strb	r0, [r1]
	b	.LBB1_4
.Ltmp5:
.LBB1_4:
	.loc	1 0 5                   @ ../MYx/Src/My_Func.c:0:5
	add	r0, sp, #4
	.loc	1 26 1 is_stmt 1        @ ../MYx/Src/My_Func.c:26:1
	ldrb	r0, [r0]
	add	sp, #8
	bx	lr
.Ltmp6:
.Lfunc_end1:
	.size	My_CharDowncase, .Lfunc_end1-My_CharDowncase
	.cfi_endproc
	.cantunwind
	.fnend
                                        @ -- End function
	.hidden	My_HexToInt             @ -- Begin function My_HexToInt
	.globl	My_HexToInt
	.p2align	1
	.type	My_HexToInt,%function
	.code	16                      @ @My_HexToInt
	.thumb_func
My_HexToInt:
.Lfunc_begin2:
	.loc	1 30 0                  @ ../MYx/Src/My_Func.c:30:0
	.fnstart
	.cfi_startproc
@ %bb.0:
	.pad	#24
	sub	sp, #24
	.cfi_def_cfa_offset 24
	mov	r1, r0
	add	r2, sp, #20
	strb	r0, [r2]
.Ltmp7:
	.loc	1 31 10 prologue_end    @ ../MYx/Src/My_Func.c:31:10
	ldrb	r0, [r2]
	.loc	1 31 16 is_stmt 0       @ ../MYx/Src/My_Func.c:31:16
	cmp	r0, #97
	str	r0, [sp, #16]           @ 4-byte Spill
	blt	.LBB2_2
	b	.LBB2_1
.LBB2_1:
	.loc	1 0 16                  @ ../MYx/Src/My_Func.c:0:16
	movs	r0, #87
	.loc	1 31 16                 @ ../MYx/Src/My_Func.c:31:16
	str	r0, [sp, #12]           @ 4-byte Spill
	b	.LBB2_8
.LBB2_2:
	.loc	1 0 16                  @ ../MYx/Src/My_Func.c:0:16
	add	r0, sp, #20
	.loc	1 32 19 is_stmt 1       @ ../MYx/Src/My_Func.c:32:19
	ldrb	r0, [r0]
	cmp	r0, #65
	blt	.LBB2_4
	b	.LBB2_3
.LBB2_3:
	.loc	1 0 19 is_stmt 0        @ ../MYx/Src/My_Func.c:0:19
	movs	r0, #55
	.loc	1 32 19                 @ ../MYx/Src/My_Func.c:32:19
	str	r0, [sp, #8]            @ 4-byte Spill
	b	.LBB2_7
.LBB2_4:
	.loc	1 0 19                  @ ../MYx/Src/My_Func.c:0:19
	add	r0, sp, #20
	.loc	1 33 22 is_stmt 1       @ ../MYx/Src/My_Func.c:33:22
	ldrb	r0, [r0]
	movs	r1, #48
	movs	r2, #0
	cmp	r0, #58
	str	r2, [sp, #4]            @ 4-byte Spill
	str	r1, [sp]                @ 4-byte Spill
	blt	.LBB2_6
@ %bb.5:
	ldr	r0, [sp, #4]            @ 4-byte Reload
	str	r0, [sp]                @ 4-byte Spill
.LBB2_6:
	ldr	r0, [sp]                @ 4-byte Reload
	.loc	1 32 19                 @ ../MYx/Src/My_Func.c:32:19
	str	r0, [sp, #8]            @ 4-byte Spill
	b	.LBB2_7
.LBB2_7:
	ldr	r0, [sp, #8]            @ 4-byte Reload
	.loc	1 31 16                 @ ../MYx/Src/My_Func.c:31:16
	str	r0, [sp, #12]           @ 4-byte Spill
	b	.LBB2_8
.LBB2_8:
	ldr	r0, [sp, #12]           @ 4-byte Reload
	.loc	1 31 13 is_stmt 0       @ ../MYx/Src/My_Func.c:31:13
	ldr	r1, [sp, #16]           @ 4-byte Reload
	subs	r0, r1, r0
	.loc	1 31 3                  @ ../MYx/Src/My_Func.c:31:3
	uxtb	r0, r0
	add	sp, #24
	bx	lr
.Ltmp8:
.Lfunc_end2:
	.size	My_HexToInt, .Lfunc_end2-My_HexToInt
	.cfi_endproc
	.cantunwind
	.fnend
                                        @ -- End function
	.type	int2str.str,%object     @ @int2str.str
	.section	.bss.int2str.str,"aw",%nobits
int2str.str:
	.zero	10
	.size	int2str.str, 10

	.type	.L.str,%object          @ @.str
	.section	.rodata.str1.1,"aMS",%progbits,1
.L.str:
	.asciz	"%d"
	.size	.L.str, 3

	.file	2 "C:\\" "Keil_v5\\ARM\\ARMCLANG\\Bin\\..\\include\\stdint.h"
	.section	".note.GNU-stack","",%progbits
	.eabi_attribute	30, 6	@ Tag_ABI_optimization_goals
	.ARM_attribute	16, 1	@ Tag_AV_eba