	.text
	.syntax unified
	.eabi_attribute	67, "2.09"	@ Tag_conformance
	.cpu	cortex-m23
	.eabi_attribute	6, 16	@ Tag_CPU_arch
	.eabi_attribute	7, 77	@ Tag_CPU_arch_profile
	.eabi_attribute	8, 0	@ Tag_ARM_ISA_use
	.eabi_attribute	9, 3	@ Tag_THUMB_ISA_use
	.eabi_attribute	34, 0	@ Tag_CPU_unaligned_access
	.eabi_attribute	17, 1	@ Tag_ABI_PCS_GOT_use
	.eabi_attribute	20, 2	@ Tag_ABI_FP_denormal
	.eabi_attribute	21, 0	@ Tag_ABI_FP_exceptions
	.eabi_attribute	23, 1	@ Tag_ABI_FP_number_model
	.eabi_attribute	24, 1	@ Tag_ABI_align_needed
	.eabi_attribute	25, 1	@ Tag_ABI_align_preserved
	.eabi_attribute	38, 1	@ Tag_ABI_FP_16bit_format
	.eabi_attribute	18, 2	@ Tag_ABI_PCS_wchar_t
	.eabi_attribute	26, 1	@ Tag_ABI_enum_size
	.eabi_attribute	14, 0	@ Tag_ABI_PCS_R9_use
	.file	"MyDev_Motor.c"
	.file	1 "C:\\Work\\Keil WorkSpace\\Furbo\\Keil" "../MYx/Core/Inc/MyMCU_GPIO.h"
	.file	2 "C:\\Work\\Keil WorkSpace\\Furbo\\Keil" "../MYx/Core/Inc\\MyDev_Motor.h"
	.file	3 "C:\\Work\\Keil WorkSpace\\Furbo\\Keil" "../MYx/Core/Src/MyDev_Motor.c"
	.file	4 "C:\\" "Keil_v5\\ARM\\ARMCLANG\\Bin\\..\\include\\stdint.h"
	.file	5 "C:\\Work\\Keil WorkSpace\\Furbo\\Keil" "../../Library/Nuvoton/M251_252_Series/CMSIS/Include\\core_cm23.h"
	.hidden	MyMoto_Init             @ -- Begin function MyMoto_Init
	.globl	MyMoto_Init
	.p2align	2
	.type	MyMoto_Init,%function
	.code	16                      @ @MyMoto_Init
	.thumb_func
MyMoto_Init:
.Lfunc_begin0:
	.loc	3 20 0                  @ ../MYx/Core/Src/MyDev_Motor.c:20:0
	.fnstart
	.cfi_sections .debug_frame
	.cfi_startproc
@ %bb.0:
	.save	{r4, r5, r7, lr}
	push	{r4, r5, r7, lr}
	.cfi_def_cfa_offset 16
	.cfi_offset lr, -4
	.cfi_offset r7, -8
	.cfi_offset r5, -12
	.cfi_offset r4, -16
	.pad	#48
	sub	sp, #48
	.cfi_def_cfa_offset 64
.Ltmp0:
	.loc	3 22 26 prologue_end    @ ../MYx/Core/Src/MyDev_Motor.c:22:26
	ldr	r0, __arm_cp.0_0
	movs	r1, #0
	strb	r1, [r0]
	.loc	3 23 26                 @ ../MYx/Core/Src/MyDev_Motor.c:23:26
	strb	r1, [r0, #1]
	.loc	3 24 26                 @ ../MYx/Core/Src/MyDev_Motor.c:24:26
	strb	r1, [r0, #2]
	movs	r2, #1
	.loc	3 25 26                 @ ../MYx/Core/Src/MyDev_Motor.c:25:26
	strb	r2, [r0, #3]
	.loc	3 26 26                 @ ../MYx/Core/Src/MyDev_Motor.c:26:26
	strb	r1, [r0, #4]
	movs	r3, #2
	.loc	3 27 26                 @ ../MYx/Core/Src/MyDev_Motor.c:27:26
	strb	r3, [r0, #5]
	.loc	3 28 26                 @ ../MYx/Core/Src/MyDev_Motor.c:28:26
	strb	r1, [r0, #6]
	movs	r4, #3
	.loc	3 29 26                 @ ../MYx/Core/Src/MyDev_Motor.c:29:26
	strb	r4, [r0, #7]
	movw	r5, #360
	.loc	3 30 23                 @ ../MYx/Core/Src/MyDev_Motor.c:30:23
	str	r5, [r0, #12]
	.loc	3 31 24                 @ ../MYx/Core/Src/MyDev_Motor.c:31:24
	strb	r1, [r0, #9]
	.loc	3 32 23                 @ ../MYx/Core/Src/MyDev_Motor.c:32:23
	strb	r3, [r0, #8]
	.loc	3 34 26                 @ ../MYx/Core/Src/MyDev_Motor.c:34:26
	strb	r3, [r0, #16]
	.loc	3 35 26                 @ ../MYx/Core/Src/MyDev_Motor.c:35:26
	strb	r1, [r0, #17]
	.loc	3 36 26                 @ ../MYx/Core/Src/MyDev_Motor.c:36:26
	strb	r3, [r0, #18]
	.loc	3 37 26                 @ ../MYx/Core/Src/MyDev_Motor.c:37:26
	strb	r2, [r0, #19]
	.loc	3 38 26                 @ ../MYx/Core/Src/MyDev_Motor.c:38:26
	strb	r3, [r0, #20]
	.loc	3 39 26                 @ ../MYx/Core/Src/MyDev_Motor.c:39:26
	strb	r3, [r0, #21]
	.loc	3 40 26                 @ ../MYx/Core/Src/MyDev_Motor.c:40:26
	strb	r3, [r0, #22]
	.loc	3 41 26                 @ ../MYx/Core/Src/MyDev_Motor.c:41:26
	strb	r4, [r0, #23]
	.loc	3 42 23                 @ ../MYx/Core/Src/MyDev_Motor.c:42:23
	str	r5, [r0, #28]
	.loc	3 43 24                 @ ../MYx/Core/Src/MyDev_Motor.c:43:24
	strb	r1, [r0, #25]
	.loc	3 44 23                 @ ../MYx/Core/Src/MyDev_Motor.c:44:23
	strb	r3, [r0, #24]
	.loc	3 52 2                  @ ../MYx/Core/Src/MyDev_Motor.c:52:2
	mov	r0, r1
	str	r1, [sp, #44]           @ 4-byte Spill
	ldr	r5, [sp, #44]           @ 4-byte Reload
	str	r2, [sp, #40]           @ 4-byte Spill
	mov	r2, r5
	str	r3, [sp, #36]           @ 4-byte Spill
	str	r4, [sp, #32]           @ 4-byte Spill
	bl	MyGPIO_WritePin
	.loc	3 53 2                  @ ../MYx/Core/Src/MyDev_Motor.c:53:2
	ldr	r1, [sp, #44]           @ 4-byte Reload
	str	r0, [sp, #28]           @ 4-byte Spill
	mov	r0, r1
	ldr	r1, [sp, #40]           @ 4-byte Reload
	ldr	r2, [sp, #44]           @ 4-byte Reload
	bl	MyGPIO_WritePin
	.loc	3 54 2                  @ ../MYx/Core/Src/MyDev_Motor.c:54:2
	ldr	r1, [sp, #44]           @ 4-byte Reload
	str	r0, [sp, #24]           @ 4-byte Spill
	mov	r0, r1
	ldr	r1, [sp, #36]           @ 4-byte Reload
	ldr	r2, [sp, #44]           @ 4-byte Reload
	bl	MyGPIO_WritePin
	.loc	3 55 2                  @ ../MYx/Core/Src/MyDev_Motor.c:55:2
	ldr	r1, [sp, #44]           @ 4-byte Reload
	str	r0, [sp, #20]           @ 4-byte Spill
	mov	r0, r1
	ldr	r1, [sp, #32]           @ 4-byte Reload
	ldr	r2, [sp, #44]           @ 4-byte Reload
	bl	MyGPIO_WritePin
	.loc	3 56 2                  @ ../MYx/Core/Src/MyDev_Motor.c:56:2
	ldr	r1, [sp, #36]           @ 4-byte Reload
	str	r0, [sp, #16]           @ 4-byte Spill
	mov	r0, r1
	ldr	r1, [sp, #44]           @ 4-byte Reload
	ldr	r2, [sp, #44]           @ 4-byte Reload
	bl	MyGPIO_WritePin
	.loc	3 57 2                  @ ../MYx/Core/Src/MyDev_Motor.c:57:2
	ldr	r1, [sp, #36]           @ 4-byte Reload
	str	r0, [sp, #12]           @ 4-byte Spill
	mov	r0, r1
	ldr	r1, [sp, #40]           @ 4-byte Reload
	ldr	r2, [sp, #44]           @ 4-byte Reload
	bl	MyGPIO_WritePin
	.loc	3 58 2                  @ ../MYx/Core/Src/MyDev_Motor.c:58:2
	ldr	r1, [sp, #36]           @ 4-byte Reload
	str	r0, [sp, #8]            @ 4-byte Spill
	mov	r0, r1
	ldr	r2, [sp, #44]           @ 4-byte Reload
	bl	MyGPIO_WritePin
	.loc	3 59 2                  @ ../MYx/Core/Src/MyDev_Motor.c:59:2
	ldr	r1, [sp, #36]           @ 4-byte Reload
	str	r0, [sp, #4]            @ 4-byte Spill
	mov	r0, r1
	ldr	r1, [sp, #32]           @ 4-byte Reload
	ldr	r2, [sp, #44]           @ 4-byte Reload
	bl	MyGPIO_WritePin
	.loc	3 62 2                  @ ../MYx/Core/Src/MyDev_Motor.c:62:2
	ldr	r1, [sp, #44]           @ 4-byte Reload
	str	r0, [sp]                @ 4-byte Spill
	mov	r0, r1
	bl	MyGPIO_Conf2Output
	.loc	3 63 2                  @ ../MYx/Core/Src/MyDev_Motor.c:63:2
	ldr	r0, [sp, #44]           @ 4-byte Reload
	ldr	r1, [sp, #40]           @ 4-byte Reload
	bl	MyGPIO_Conf2Output
	.loc	3 64 2                  @ ../MYx/Core/Src/MyDev_Motor.c:64:2
	ldr	r0, [sp, #44]           @ 4-byte Reload
	ldr	r1, [sp, #36]           @ 4-byte Reload
	bl	MyGPIO_Conf2Output
	.loc	3 65 2                  @ ../MYx/Core/Src/MyDev_Motor.c:65:2
	ldr	r0, [sp, #44]           @ 4-byte Reload
	ldr	r1, [sp, #32]           @ 4-byte Reload
	bl	MyGPIO_Conf2Output
	.loc	3 66 2                  @ ../MYx/Core/Src/MyDev_Motor.c:66:2
	ldr	r0, [sp, #36]           @ 4-byte Reload
	ldr	r1, [sp, #44]           @ 4-byte Reload
	bl	MyGPIO_Conf2Output
	.loc	3 67 2                  @ ../MYx/Core/Src/MyDev_Motor.c:67:2
	ldr	r0, [sp, #36]           @ 4-byte Reload
	ldr	r1, [sp, #40]           @ 4-byte Reload
	bl	MyGPIO_Conf2Output
	.loc	3 68 2                  @ ../MYx/Core/Src/MyDev_Motor.c:68:2
	ldr	r0, [sp, #36]           @ 4-byte Reload
	ldr	r1, [sp, #36]           @ 4-byte Reload
	bl	MyGPIO_Conf2Output
	.loc	3 69 2                  @ ../MYx/Core/Src/MyDev_Motor.c:69:2
	ldr	r0, [sp, #36]           @ 4-byte Reload
	ldr	r1, [sp, #32]           @ 4-byte Reload
	bl	MyGPIO_Conf2Output
	.loc	3 71 1                  @ ../MYx/Core/Src/MyDev_Motor.c:71:1
	add	sp, #48
	pop	{r4, r5, r7, pc}
.Ltmp1:
	.p2align	2
@ %bb.1:
	.loc	3 0 1 is_stmt 0         @ ../MYx/Core/Src/MyDev_Motor.c:0:1
__arm_cp.0_0:
	.long	STPMT
.Lcpi_end0:
	.size	__arm_cp.0_0, .Lcpi_end0-__arm_cp.0_0
.Lfunc_end0:
	.size	MyMoto_Init, .Lfunc_end0-MyMoto_Init
	.cfi_endproc
	.cantunwind
	.fnend
                                        @ -- End function
	.hidden	MyMoto_STPDriveEx       @ -- Begin function MyMoto_STPDriveEx
	.globl	MyMoto_STPDriveEx
	.p2align	2
	.type	MyMoto_STPDriveEx,%function
	.code	16                      @ @MyMoto_STPDriveEx
	.thumb_func
MyMoto_STPDriveEx:
.Lfunc_begin1:
	.loc	3 78 0 is_stmt 1        @ ../MYx/Core/Src/MyDev_Motor.c:78:0
	.fnstart
	.cfi_startproc
@ %bb.0:
	.save	{r4, r5, r7, lr}
	push	{r4, r5, r7, lr}
	.cfi_def_cfa_offset 16
	.cfi_offset lr, -4
	.cfi_offset r7, -8
	.cfi_offset r5, -12
	.cfi_offset r4, -16
	.pad	#12
	sub	sp, #12
	.cfi_def_cfa_offset 28
	mov	r2, r1
	mov	r3, r0
	add	r4, sp, #8
	strb	r0, [r4]
	add	r0, sp, #4
	strb	r1, [r0]
.Ltmp2:
	.loc	3 79 10 prologue_end    @ ../MYx/Core/Src/MyDev_Motor.c:79:10
	ldrb	r0, [r0]
	.loc	3 79 2 is_stmt 0        @ ../MYx/Core/Src/MyDev_Motor.c:79:2
	cmp	r0, #3
	str	r0, [sp]                @ 4-byte Spill
	bls	.LBB1_1
	b	.LBB1_42
.LBB1_1:
	.loc	3 0 2                   @ ../MYx/Core/Src/MyDev_Motor.c:0:2
	ldr	r0, [sp]                @ 4-byte Reload
	lsls	r1, r0, #2
	adr	r2, .LJTI1_0
	adds	r1, r2, r1
	mov	pc, r1
@ %bb.2:
	.p2align	2
.LJTI1_0:
	b.w	.LBB1_3
	b.w	.LBB1_12
	b.w	.LBB1_21
	b.w	.LBB1_30
.LBB1_3:
.Ltmp3:
	.loc	3 82 3 is_stmt 1        @ ../MYx/Core/Src/MyDev_Motor.c:82:3
	b	.LBB1_4
.LBB1_4:
	.loc	3 0 3 is_stmt 0         @ ../MYx/Core/Src/MyDev_Motor.c:0:3
	add	r0, sp, #8
.Ltmp4:
	.loc	3 82 3                  @ ../MYx/Core/Src/MyDev_Motor.c:82:3
	ldrb	r1, [r0]
	lsls	r1, r1, #4
	ldr	r2, .LCPI1_4
	adds	r3, r2, r1
	ldrb	r3, [r3, #1]
	lsls	r3, r3, #1
	ldr	r4, .LCPI1_5
	ldrh	r3, [r4, r3]
	mvns	r3, r3
	ldrb	r1, [r2, r1]
	lsls	r1, r1, #2
	ldr	r5, .LCPI1_6
	ldr	r1, [r5, r1]
	str	r3, [r1, #12]
	ldrb	r0, [r0]
	lsls	r0, r0, #4
	adds	r1, r2, r0
	ldrb	r1, [r1, #1]
	lsls	r1, r1, #1
	ldrh	r1, [r4, r1]
	ldrb	r0, [r2, r0]
	lsls	r0, r0, #2
	ldr	r0, [r5, r0]
	str	r1, [r0, #8]
	b	.LBB1_5
.Ltmp5:
.LBB1_5:
	.loc	3 83 3 is_stmt 1        @ ../MYx/Core/Src/MyDev_Motor.c:83:3
	b	.LBB1_6
.LBB1_6:
	.loc	3 0 3 is_stmt 0         @ ../MYx/Core/Src/MyDev_Motor.c:0:3
	add	r0, sp, #8
.Ltmp6:
	.loc	3 83 3                  @ ../MYx/Core/Src/MyDev_Motor.c:83:3
	ldrb	r1, [r0]
	lsls	r1, r1, #4
	ldr	r2, .LCPI1_4
	adds	r1, r2, r1
	ldrb	r1, [r1, #2]
	lsls	r3, r1, #1
	ldr	r4, .LCPI1_5
	ldrh	r3, [r4, r3]
	mvns	r3, r3
	lsls	r1, r1, #2
	ldr	r5, .LCPI1_6
	ldr	r1, [r5, r1]
	str	r3, [r1, #12]
	ldrb	r0, [r0]
	lsls	r0, r0, #4
	adds	r0, r2, r0
	ldrb	r0, [r0, #2]
	lsls	r1, r0, #1
	ldrh	r1, [r4, r1]
	lsls	r0, r0, #2
	ldr	r0, [r5, r0]
	str	r1, [r0, #8]
	b	.LBB1_7
.Ltmp7:
.LBB1_7:
	.loc	3 84 3 is_stmt 1        @ ../MYx/Core/Src/MyDev_Motor.c:84:3
	b	.LBB1_8
.LBB1_8:
	.loc	3 0 3 is_stmt 0         @ ../MYx/Core/Src/MyDev_Motor.c:0:3
	add	r0, sp, #8
.Ltmp8:
	.loc	3 84 3                  @ ../MYx/Core/Src/MyDev_Motor.c:84:3
	ldrb	r1, [r0]
	lsls	r1, r1, #4
	ldr	r2, __arm_cp.1_0
	adds	r1, r2, r1
	ldrb	r3, [r1, #5]
	lsls	r3, r3, #1
	ldr	r4, __arm_cp.1_1
	ldrh	r3, [r4, r3]
	mvns	r3, r3
	ldrb	r1, [r1, #4]
	lsls	r1, r1, #2
	ldr	r5, __arm_cp.1_2
	ldr	r1, [r5, r1]
	str	r3, [r1, #12]
	ldrb	r0, [r0]
	lsls	r0, r0, #4
	adds	r0, r2, r0
	ldrb	r1, [r0, #5]
	lsls	r1, r1, #1
	ldrh	r1, [r4, r1]
	mvns	r1, r1
	ldrb	r0, [r0, #4]
	lsls	r0, r0, #2
	ldr	r0, [r5, r0]
	str	r1, [r0, #8]
	b	.LBB1_9
.Ltmp9:
.LBB1_9:
	.loc	3 85 3 is_stmt 1        @ ../MYx/Core/Src/MyDev_Motor.c:85:3
	b	.LBB1_10
.LBB1_10:
	.loc	3 0 3 is_stmt 0         @ ../MYx/Core/Src/MyDev_Motor.c:0:3
	add	r0, sp, #8
.Ltmp10:
	.loc	3 85 3                  @ ../MYx/Core/Src/MyDev_Motor.c:85:3
	ldrb	r1, [r0]
	lsls	r1, r1, #4
	ldr	r2, __arm_cp.1_0
	adds	r1, r2, r1
	ldrb	r3, [r1, #7]
	lsls	r3, r3, #1
	ldr	r4, __arm_cp.1_1
	ldrh	r3, [r4, r3]
	mvns	r3, r3
	ldrb	r1, [r1, #6]
	lsls	r1, r1, #2
	ldr	r5, __arm_cp.1_2
	ldr	r1, [r5, r1]
	str	r3, [r1, #12]
	ldrb	r0, [r0]
	lsls	r0, r0, #4
	adds	r0, r2, r0
	ldrb	r1, [r0, #7]
	lsls	r1, r1, #1
	ldrh	r1, [r4, r1]
	mvns	r1, r1
	ldrb	r0, [r0, #6]
	lsls	r0, r0, #2
	ldr	r0, [r5, r0]
	str	r1, [r0, #8]
	b	.LBB1_11
.Ltmp11:
.LBB1_11:
	.loc	3 86 3 is_stmt 1        @ ../MYx/Core/Src/MyDev_Motor.c:86:3
	b	.LBB1_51
.LBB1_12:
	.loc	3 89 3                  @ ../MYx/Core/Src/MyDev_Motor.c:89:3
	b	.LBB1_13
.LBB1_13:
	.loc	3 0 3 is_stmt 0         @ ../MYx/Core/Src/MyDev_Motor.c:0:3
	add	r0, sp, #8
.Ltmp12:
	.loc	3 89 3                  @ ../MYx/Core/Src/MyDev_Motor.c:89:3
	ldrb	r1, [r0]
	lsls	r1, r1, #4
	ldr	r2, __arm_cp.1_0
	adds	r3, r2, r1
	ldrb	r3, [r3, #1]
	lsls	r3, r3, #1
	ldr	r4, __arm_cp.1_1
	ldrh	r3, [r4, r3]
	mvns	r3, r3
	ldrb	r1, [r2, r1]
	lsls	r1, r1, #2
	ldr	r5, __arm_cp.1_2
	ldr	r1, [r5, r1]
	str	r3, [r1, #12]
	ldrb	r0, [r0]
	lsls	r0, r0, #4
	adds	r1, r2, r0
	ldrb	r1, [r1, #1]
	lsls	r1, r1, #1
	ldrh	r1, [r4, r1]
	mvns	r1, r1
	ldrb	r0, [r2, r0]
	lsls	r0, r0, #2
	ldr	r0, [r5, r0]
	str	r1, [r0, #8]
	b	.LBB1_14
.Ltmp13:
.LBB1_14:
	.loc	3 90 3 is_stmt 1        @ ../MYx/Core/Src/MyDev_Motor.c:90:3
	b	.LBB1_15
.LBB1_15:
	.loc	3 0 3 is_stmt 0         @ ../MYx/Core/Src/MyDev_Motor.c:0:3
	add	r0, sp, #8
.Ltmp14:
	.loc	3 90 3                  @ ../MYx/Core/Src/MyDev_Motor.c:90:3
	ldrb	r1, [r0]
	lsls	r1, r1, #4
	ldr	r2, __arm_cp.1_0
	adds	r1, r2, r1
	ldrb	r3, [r1, #3]
	lsls	r3, r3, #1
	ldr	r4, __arm_cp.1_1
	ldrh	r3, [r4, r3]
	mvns	r3, r3
	ldrb	r1, [r1, #2]
	lsls	r1, r1, #2
	ldr	r5, __arm_cp.1_2
	ldr	r1, [r5, r1]
	str	r3, [r1, #12]
	ldrb	r0, [r0]
	lsls	r0, r0, #4
	adds	r0, r2, r0
	ldrb	r1, [r0, #3]
	lsls	r1, r1, #1
	ldrh	r1, [r4, r1]
	ldrb	r0, [r0, #2]
	lsls	r0, r0, #2
	ldr	r0, [r5, r0]
	str	r1, [r0, #8]
	b	.LBB1_16
.Ltmp15:
.LBB1_16:
	.loc	3 91 3 is_stmt 1        @ ../MYx/Core/Src/MyDev_Motor.c:91:3
	b	.LBB1_17
.LBB1_17:
	.loc	3 0 3 is_stmt 0         @ ../MYx/Core/Src/MyDev_Motor.c:0:3
	add	r0, sp, #8
.Ltmp16:
	.loc	3 91 3                  @ ../MYx/Core/Src/MyDev_Motor.c:91:3
	ldrb	r1, [r0]
	lsls	r1, r1, #4
	ldr	r2, __arm_cp.1_0
	adds	r1, r2, r1
	ldrb	r3, [r1, #5]
	lsls	r3, r3, #1
	ldr	r4, __arm_cp.1_1
	ldrh	r3, [r4, r3]
	mvns	r3, r3
	ldrb	r1, [r1, #4]
	lsls	r1, r1, #2
	ldr	r5, __arm_cp.1_2
	ldr	r1, [r5, r1]
	str	r3, [r1, #12]
	ldrb	r0, [r0]
	lsls	r0, r0, #4
	adds	r0, r2, r0
	ldrb	r1, [r0, #5]
	lsls	r1, r1, #1
	ldrh	r1, [r4, r1]
	ldrb	r0, [r0, #4]
	lsls	r0, r0, #2
	ldr	r0, [r5, r0]
	str	r1, [r0, #8]
	b	.LBB1_18
.Ltmp17:
.LBB1_18:
	.loc	3 92 3 is_stmt 1        @ ../MYx/Core/Src/MyDev_Motor.c:92:3
	b	.LBB1_19
.LBB1_19:
	.loc	3 0 3 is_stmt 0         @ ../MYx/Core/Src/MyDev_Motor.c:0:3
	add	r0, sp, #8
.Ltmp18:
	.loc	3 92 3                  @ ../MYx/Core/Src/MyDev_Motor.c:92:3
	ldrb	r1, [r0]
	lsls	r1, r1, #4
	ldr	r2, __arm_cp.1_0
	adds	r1, r2, r1
	ldrb	r3, [r1, #7]
	lsls	r3, r3, #1
	ldr	r4, __arm_cp.1_1
	ldrh	r3, [r4, r3]
	mvns	r3, r3
	ldrb	r1, [r1, #6]
	lsls	r1, r1, #2
	ldr	r5, __arm_cp.1_2
	ldr	r1, [r5, r1]
	str	r3, [r1, #12]
	ldrb	r0, [r0]
	lsls	r0, r0, #4
	adds	r0, r2, r0
	ldrb	r1, [r0, #7]
	lsls	r1, r1, #1
	ldrh	r1, [r4, r1]
	mvns	r1, r1
	ldrb	r0, [r0, #6]
	lsls	r0, r0, #2
	ldr	r0, [r5, r0]
	str	r1, [r0, #8]
	b	.LBB1_20
.Ltmp19:
.LBB1_20:
	.loc	3 93 3 is_stmt 1        @ ../MYx/Core/Src/MyDev_Motor.c:93:3
	b	.LBB1_51
.LBB1_21:
	.loc	3 96 3                  @ ../MYx/Core/Src/MyDev_Motor.c:96:3
	b	.LBB1_22
.LBB1_22:
	.loc	3 0 3 is_stmt 0         @ ../MYx/Core/Src/MyDev_Motor.c:0:3
	add	r0, sp, #8
.Ltmp20:
	.loc	3 96 3                  @ ../MYx/Core/Src/MyDev_Motor.c:96:3
	ldrb	r1, [r0]
	lsls	r1, r1, #4
	ldr	r2, __arm_cp.1_0
	adds	r3, r2, r1
	ldrb	r3, [r3, #1]
	lsls	r3, r3, #1
	ldr	r4, __arm_cp.1_1
	ldrh	r3, [r4, r3]
	mvns	r3, r3
	ldrb	r1, [r2, r1]
	lsls	r1, r1, #2
	ldr	r5, __arm_cp.1_2
	ldr	r1, [r5, r1]
	str	r3, [r1, #12]
	ldrb	r0, [r0]
	lsls	r0, r0, #4
	adds	r1, r2, r0
	ldrb	r1, [r1, #1]
	lsls	r1, r1, #1
	ldrh	r1, [r4, r1]
	mvns	r1, r1
	ldrb	r0, [r2, r0]
	lsls	r0, r0, #2
	ldr	r0, [r5, r0]
	str	r1, [r0, #8]
	b	.LBB1_23
.Ltmp21:
.LBB1_23:
	.loc	3 97 3 is_stmt 1        @ ../MYx/Core/Src/MyDev_Motor.c:97:3
	b	.LBB1_24
.LBB1_24:
	.loc	3 0 3 is_stmt 0         @ ../MYx/Core/Src/MyDev_Motor.c:0:3
	add	r0, sp, #8
.Ltmp22:
	.loc	3 97 3                  @ ../MYx/Core/Src/MyDev_Motor.c:97:3
	ldrb	r1, [r0]
	lsls	r1, r1, #4
	ldr	r2, __arm_cp.1_0
	adds	r1, r2, r1
	ldrb	r3, [r1, #3]
	lsls	r3, r3, #1
	ldr	r4, __arm_cp.1_1
	ldrh	r3, [r4, r3]
	mvns	r3, r3
	ldrb	r1, [r1, #2]
	lsls	r1, r1, #2
	ldr	r5, __arm_cp.1_2
	ldr	r1, [r5, r1]
	str	r3, [r1, #12]
	ldrb	r0, [r0]
	lsls	r0, r0, #4
	adds	r0, r2, r0
	ldrb	r1, [r0, #3]
	lsls	r1, r1, #1
	ldrh	r1, [r4, r1]
	mvns	r1, r1
	ldrb	r0, [r0, #2]
	lsls	r0, r0, #2
	ldr	r0, [r5, r0]
	str	r1, [r0, #8]
	b	.LBB1_25
.Ltmp23:
.LBB1_25:
	.loc	3 98 3 is_stmt 1        @ ../MYx/Core/Src/MyDev_Motor.c:98:3
	b	.LBB1_26
.LBB1_26:
	.loc	3 0 3 is_stmt 0         @ ../MYx/Core/Src/MyDev_Motor.c:0:3
	add	r0, sp, #8
.Ltmp24:
	.loc	3 98 3                  @ ../MYx/Core/Src/MyDev_Motor.c:98:3
	ldrb	r1, [r0]
	lsls	r1, r1, #4
	ldr	r2, __arm_cp.1_0
	adds	r1, r2, r1
	ldrb	r3, [r1, #5]
	lsls	r3, r3, #1
	ldr	r4, __arm_cp.1_1
	ldrh	r3, [r4, r3]
	mvns	r3, r3
	ldrb	r1, [r1, #4]
	lsls	r1, r1, #2
	ldr	r5, __arm_cp.1_2
	ldr	r1, [r5, r1]
	str	r3, [r1, #12]
	ldrb	r0, [r0]
	lsls	r0, r0, #4
	adds	r0, r2, r0
	ldrb	r1, [r0, #5]
	lsls	r1, r1, #1
	ldrh	r1, [r4, r1]
	ldrb	r0, [r0, #4]
	lsls	r0, r0, #2
	ldr	r0, [r5, r0]
	str	r1, [r0, #8]
	b	.LBB1_27
.Ltmp25:
.LBB1_27:
	.loc	3 99 3 is_stmt 1        @ ../MYx/Core/Src/MyDev_Motor.c:99:3
	b	.LBB1_28
.LBB1_28:
	.loc	3 0 3 is_stmt 0         @ ../MYx/Core/Src/MyDev_Motor.c:0:3
	add	r0, sp, #8
.Ltmp26:
	.loc	3 99 3                  @ ../MYx/Core/Src/MyDev_Motor.c:99:3
	ldrb	r1, [r0]
	lsls	r1, r1, #4
	ldr	r2, __arm_cp.1_0
	adds	r1, r2, r1
	ldrb	r3, [r1, #7]
	lsls	r3, r3, #1
	ldr	r4, __arm_cp.1_1
	ldrh	r3, [r4, r3]
	mvns	r3, r3
	ldrb	r1, [r1, #6]
	lsls	r1, r1, #2
	ldr	r5, __arm_cp.1_2
	ldr	r1, [r5, r1]
	str	r3, [r1, #12]
	ldrb	r0, [r0]
	lsls	r0, r0, #4
	adds	r0, r2, r0
	ldrb	r1, [r0, #7]
	lsls	r1, r1, #1
	ldrh	r1, [r4, r1]
	ldrb	r0, [r0, #6]
	lsls	r0, r0, #2
	ldr	r0, [r5, r0]
	str	r1, [r0, #8]
	b	.LBB1_29
.Ltmp27:
.LBB1_29:
	.loc	3 100 3 is_stmt 1       @ ../MYx/Core/Src/MyDev_Motor.c:100:3
	b	.LBB1_51
.LBB1_30:
	.loc	3 103 3                 @ ../MYx/Core/Src/MyDev_Motor.c:103:3
	b	.LBB1_31
.LBB1_31:
	.loc	3 0 3 is_stmt 0         @ ../MYx/Core/Src/MyDev_Motor.c:0:3
	add	r0, sp, #8
.Ltmp28:
	.loc	3 103 3                 @ ../MYx/Core/Src/MyDev_Motor.c:103:3
	ldrb	r1, [r0]
	lsls	r1, r1, #4
	ldr	r2, __arm_cp.1_0
	adds	r3, r2, r1
	ldrb	r3, [r3, #1]
	lsls	r3, r3, #1
	ldr	r4, __arm_cp.1_1
	ldrh	r3, [r4, r3]
	mvns	r3, r3
	ldrb	r1, [r2, r1]
	lsls	r1, r1, #2
	ldr	r5, __arm_cp.1_2
	ldr	r1, [r5, r1]
	str	r3, [r1, #12]
	ldrb	r0, [r0]
	lsls	r0, r0, #4
	adds	r1, r2, r0
	ldrb	r1, [r1, #1]
	lsls	r1, r1, #1
	ldrh	r1, [r4, r1]
	ldrb	r0, [r2, r0]
	lsls	r0, r0, #2
	ldr	r0, [r5, r0]
	str	r1, [r0, #8]
	b	.LBB1_32
.Ltmp29:
.LBB1_32:
	.loc	3 104 3 is_stmt 1       @ ../MYx/Core/Src/MyDev_Motor.c:104:3
	b	.LBB1_33
.LBB1_33:
	.loc	3 0 3 is_stmt 0         @ ../MYx/Core/Src/MyDev_Motor.c:0:3
	add	r0, sp, #8
.Ltmp30:
	.loc	3 104 3                 @ ../MYx/Core/Src/MyDev_Motor.c:104:3
	ldrb	r1, [r0]
	lsls	r1, r1, #4
	ldr	r2, __arm_cp.1_0
	adds	r1, r2, r1
	ldrb	r3, [r1, #3]
	lsls	r3, r3, #1
	ldr	r4, __arm_cp.1_1
	ldrh	r3, [r4, r3]
	mvns	r3, r3
	ldrb	r1, [r1, #2]
	lsls	r1, r1, #2
	ldr	r5, __arm_cp.1_2
	ldr	r1, [r5, r1]
	str	r3, [r1, #12]
	ldrb	r0, [r0]
	lsls	r0, r0, #4
	adds	r0, r2, r0
	ldrb	r1, [r0, #3]
	lsls	r1, r1, #1
	ldrh	r1, [r4, r1]
	mvns	r1, r1
	ldrb	r0, [r0, #2]
	lsls	r0, r0, #2
	ldr	r0, [r5, r0]
	str	r1, [r0, #8]
	b	.LBB1_34
.Ltmp31:
.LBB1_34:
	.loc	3 105 3 is_stmt 1       @ ../MYx/Core/Src/MyDev_Motor.c:105:3
	b	.LBB1_35
.LBB1_35:
	.loc	3 0 3 is_stmt 0         @ ../MYx/Core/Src/MyDev_Motor.c:0:3
	add	r0, sp, #8
.Ltmp32:
	.loc	3 105 3                 @ ../MYx/Core/Src/MyDev_Motor.c:105:3
	ldrb	r1, [r0]
	lsls	r1, r1, #4
	ldr	r2, __arm_cp.1_0
	adds	r1, r2, r1
	ldrb	r3, [r1, #5]
	lsls	r3, r3, #1
	ldr	r4, __arm_cp.1_1
	ldrh	r3, [r4, r3]
	mvns	r3, r3
	ldrb	r1, [r1, #4]
	lsls	r1, r1, #2
	ldr	r5, __arm_cp.1_2
	ldr	r1, [r5, r1]
	str	r3, [r1, #12]
	ldrb	r0, [r0]
	lsls	r0, r0, #4
	adds	r0, r2, r0
	ldrb	r1, [r0, #5]
	lsls	r1, r1, #1
	ldrh	r1, [r4, r1]
	mvns	r1, r1
	ldrb	r0, [r0, #4]
	lsls	r0, r0, #2
	ldr	r0, [r5, r0]
	str	r1, [r0, #8]
	b	.LBB1_36
.Ltmp33:
.LBB1_36:
	.loc	3 106 3 is_stmt 1       @ ../MYx/Core/Src/MyDev_Motor.c:106:3
	b	.LBB1_37
.LBB1_37:
	.loc	3 0 3 is_stmt 0         @ ../MYx/Core/Src/MyDev_Motor.c:0:3
	add	r0, sp, #8
.Ltmp34:
	.loc	3 106 3                 @ ../MYx/Core/Src/MyDev_Motor.c:106:3
	ldrb	r1, [r0]
	lsls	r1, r1, #4
	ldr	r2, __arm_cp.1_0
	adds	r1, r2, r1
	ldrb	r3, [r1, #7]
	lsls	r3, r3, #1
	ldr	r4, __arm_cp.1_1
	ldrh	r3, [r4, r3]
	mvns	r3, r3
	ldrb	r1, [r1, #6]
	lsls	r1, r1, #2
	ldr	r5, __arm_cp.1_2
	ldr	r1, [r5, r1]
	str	r3, [r1, #12]
	ldrb	r0, [r0]
	lsls	r0, r0, #4
	adds	r0, r2, r0
	ldrb	r1, [r0, #7]
	lsls	r1, r1, #1
	ldrh	r1, [r4, r1]
	ldrb	r0, [r0, #6]
	lsls	r0, r0, #2
	ldr	r0, [r5, r0]
	str	r1, [r0, #8]
	b	.LBB1_38
.Ltmp35:
.LBB1_38:
	.loc	3 107 3 is_stmt 1       @ ../MYx/Core/Src/MyDev_Motor.c:107:3
	b	.LBB1_51
	.p2align	2
@ %bb.39:
	.loc	3 0 3 is_stmt 0         @ ../MYx/Core/Src/MyDev_Motor.c:0:3
.LCPI1_4:
	.long	STPMT
	.p2align	2
@ %bb.40:
.LCPI1_5:
	.long	GPIO_Pin
	.p2align	2
@ %bb.41:
.LCPI1_6:
	.long	GPIO_Port
	.p2align	1
.LBB1_42:
	.loc	3 110 3 is_stmt 1       @ ../MYx/Core/Src/MyDev_Motor.c:110:3
	b	.LBB1_43
.LBB1_43:
	.loc	3 0 3 is_stmt 0         @ ../MYx/Core/Src/MyDev_Motor.c:0:3
	add	r0, sp, #8
.Ltmp36:
	.loc	3 110 3                 @ ../MYx/Core/Src/MyDev_Motor.c:110:3
	ldrb	r1, [r0]
	lsls	r1, r1, #4
	ldr	r2, __arm_cp.1_0
	adds	r3, r2, r1
	ldrb	r3, [r3, #1]
	lsls	r3, r3, #1
	ldr	r4, __arm_cp.1_1
	ldrh	r3, [r4, r3]
	mvns	r3, r3
	ldrb	r1, [r2, r1]
	lsls	r1, r1, #2
	ldr	r5, __arm_cp.1_2
	ldr	r1, [r5, r1]
	str	r3, [r1, #12]
	ldrb	r0, [r0]
	lsls	r0, r0, #4
	adds	r1, r2, r0
	ldrb	r1, [r1, #1]
	lsls	r1, r1, #1
	ldrh	r1, [r4, r1]
	mvns	r1, r1
	ldrb	r0, [r2, r0]
	lsls	r0, r0, #2
	ldr	r0, [r5, r0]
	str	r1, [r0, #8]
	b	.LBB1_44
.Ltmp37:
.LBB1_44:
	.loc	3 111 3 is_stmt 1       @ ../MYx/Core/Src/MyDev_Motor.c:111:3
	b	.LBB1_45
.LBB1_45:
	.loc	3 0 3 is_stmt 0         @ ../MYx/Core/Src/MyDev_Motor.c:0:3
	add	r0, sp, #8
.Ltmp38:
	.loc	3 111 3                 @ ../MYx/Core/Src/MyDev_Motor.c:111:3
	ldrb	r1, [r0]
	lsls	r1, r1, #4
	ldr	r2, __arm_cp.1_0
	adds	r1, r2, r1
	ldrb	r3, [r1, #3]
	lsls	r3, r3, #1
	ldr	r4, __arm_cp.1_1
	ldrh	r3, [r4, r3]
	mvns	r3, r3
	ldrb	r1, [r1, #2]
	lsls	r1, r1, #2
	ldr	r5, __arm_cp.1_2
	ldr	r1, [r5, r1]
	str	r3, [r1, #12]
	ldrb	r0, [r0]
	lsls	r0, r0, #4
	adds	r0, r2, r0
	ldrb	r1, [r0, #3]
	lsls	r1, r1, #1
	ldrh	r1, [r4, r1]
	mvns	r1, r1
	ldrb	r0, [r0, #2]
	lsls	r0, r0, #2
	ldr	r0, [r5, r0]
	str	r1, [r0, #8]
	b	.LBB1_46
.Ltmp39:
.LBB1_46:
	.loc	3 112 3 is_stmt 1       @ ../MYx/Core/Src/MyDev_Motor.c:112:3
	b	.LBB1_47
.LBB1_47:
	.loc	3 0 3 is_stmt 0         @ ../MYx/Core/Src/MyDev_Motor.c:0:3
	add	r0, sp, #8
.Ltmp40:
	.loc	3 112 3                 @ ../MYx/Core/Src/MyDev_Motor.c:112:3
	ldrb	r1, [r0]
	lsls	r1, r1, #4
	ldr	r2, __arm_cp.1_0
	adds	r1, r2, r1
	ldrb	r3, [r1, #5]
	lsls	r3, r3, #1
	ldr	r4, __arm_cp.1_1
	ldrh	r3, [r4, r3]
	mvns	r3, r3
	ldrb	r1, [r1, #4]
	lsls	r1, r1, #2
	ldr	r5, __arm_cp.1_2
	ldr	r1, [r5, r1]
	str	r3, [r1, #12]
	ldrb	r0, [r0]
	lsls	r0, r0, #4
	adds	r0, r2, r0
	ldrb	r1, [r0, #5]
	lsls	r1, r1, #1
	ldrh	r1, [r4, r1]
	mvns	r1, r1
	ldrb	r0, [r0, #4]
	lsls	r0, r0, #2
	ldr	r0, [r5, r0]
	str	r1, [r0, #8]
	b	.LBB1_48
.Ltmp41:
.LBB1_48:
	.loc	3 113 3 is_stmt 1       @ ../MYx/Core/Src/MyDev_Motor.c:113:3
	b	.LBB1_49
.LBB1_49:
	.loc	3 0 3 is_stmt 0         @ ../MYx/Core/Src/MyDev_Motor.c:0:3
	add	r0, sp, #8
.Ltmp42:
	.loc	3 113 3                 @ ../MYx/Core/Src/MyDev_Motor.c:113:3
	ldrb	r1, [r0]
	lsls	r1, r1, #4
	ldr	r2, __arm_cp.1_0
	adds	r1, r2, r1
	ldrb	r3, [r1, #7]
	lsls	r3, r3, #1
	ldr	r4, __arm_cp.1_1
	ldrh	r3, [r4, r3]
	mvns	r3, r3
	ldrb	r1, [r1, #6]
	lsls	r1, r1, #2
	ldr	r5, __arm_cp.1_2
	ldr	r1, [r5, r1]
	str	r3, [r1, #12]
	ldrb	r0, [r0]
	lsls	r0, r0, #4
	adds	r0, r2, r0
	ldrb	r1, [r0, #7]
	lsls	r1, r1, #1
	ldrh	r1, [r4, r1]
	mvns	r1, r1
	ldrb	r0, [r0, #6]
	lsls	r0, r0, #2
	ldr	r0, [r5, r0]
	str	r1, [r0, #8]
	b	.LBB1_50
.Ltmp43:
.LBB1_50:
	.loc	3 114 3 is_stmt 1       @ ../MYx/Core/Src/MyDev_Motor.c:114:3
	b	.LBB1_51
.Ltmp44:
.LBB1_51:
	.loc	3 116 1                 @ ../MYx/Core/Src/MyDev_Motor.c:116:1
	add	sp, #12
	pop	{r4, r5, r7, pc}
.Ltmp45:
	.p2align	2
@ %bb.52:
	.loc	3 0 1 is_stmt 0         @ ../MYx/Core/Src/MyDev_Motor.c:0:1
__arm_cp.1_0:
	.long	STPMT
.Lcpi_end1:
	.size	__arm_cp.1_0, .Lcpi_end1-__arm_cp.1_0
__arm_cp.1_1:
	.long	GPIO_Pin
.Lcpi_end2:
	.size	__arm_cp.1_1, .Lcpi_end2-__arm_cp.1_1
__arm_cp.1_2:
	.long	GPIO_Port
.Lcpi_end3:
	.size	__arm_cp.1_2, .Lcpi_end3-__arm_cp.1_2
.Lfunc_end1:
	.size	MyMoto_STPDriveEx, .Lfunc_end1-MyMoto_STPDriveEx
	.cfi_endproc
	.cantunwind
	.fnend
                                        @ -- End function
	.hidden	MyMoto_STPStartX        @ -- Begin function MyMoto_STPStartX
	.globl	MyMoto_STPStartX
	.p2align	2
	.type	MyMoto_STPStartX,%function
	.code	16                      @ @MyMoto_STPStartX
	.thumb_func
MyMoto_STPStartX:
.Lfunc_begin2:
	.loc	3 119 0 is_stmt 1       @ ../MYx/Core/Src/MyDev_Motor.c:119:0
	.fnstart
	.cfi_startproc
@ %bb.0:
	.save	{r4, lr}
	push	{r4, lr}
	.cfi_def_cfa_offset 8
	.cfi_offset lr, -4
	.cfi_offset r4, -8
	.pad	#40
	sub	sp, #40
	.cfi_def_cfa_offset 48
	mov	r1, r0
	add	r2, sp, #36
	strb	r0, [r2]
	ldr	r0, __arm_cp.2_0
.Ltmp46:
	.loc	3 120 8 prologue_end    @ ../MYx/Core/Src/MyDev_Motor.c:120:8
	str	r0, [sp, #32]
	.loc	3 121 44                @ ../MYx/Core/Src/MyDev_Motor.c:121:44
	ldrb	r0, [r2]
	.loc	3 121 38 is_stmt 0      @ ../MYx/Core/Src/MyDev_Motor.c:121:38
	lsls	r0, r0, #4
	ldr	r3, __arm_cp.2_1
	adds	r0, r3, r0
	.loc	3 121 48                @ ../MYx/Core/Src/MyDev_Motor.c:121:48
	ldr	r0, [r0, #12]
	.loc	3 121 38                @ ../MYx/Core/Src/MyDev_Motor.c:121:38
	str	r1, [sp, #20]           @ 4-byte Spill
	str	r2, [sp, #16]           @ 4-byte Spill
	str	r3, [sp, #12]           @ 4-byte Spill
	bl	__aeabi_i2f
	.loc	3 121 54                @ ../MYx/Core/Src/MyDev_Motor.c:121:54
	ldr	r1, [sp, #32]
	.loc	3 121 53                @ ../MYx/Core/Src/MyDev_Motor.c:121:53
	bl	__aeabi_fdiv
	.loc	3 121 31                @ ../MYx/Core/Src/MyDev_Motor.c:121:31
	bl	__aeabi_f2iz
	.loc	3 121 11                @ ../MYx/Core/Src/MyDev_Motor.c:121:11
	str	r0, [sp, #24]
.Ltmp47:
	.loc	3 123 12 is_stmt 1      @ ../MYx/Core/Src/MyDev_Motor.c:123:12
	ldr	r0, [sp, #16]           @ 4-byte Reload
	ldrb	r1, [r0]
	.loc	3 123 6 is_stmt 0       @ ../MYx/Core/Src/MyDev_Motor.c:123:6
	lsls	r1, r1, #4
	ldr	r2, [sp, #12]           @ 4-byte Reload
	adds	r1, r2, r1
	.loc	3 123 16                @ ../MYx/Core/Src/MyDev_Motor.c:123:16
	ldrb	r1, [r1, #9]
.Ltmp48:
	.loc	3 123 6                 @ ../MYx/Core/Src/MyDev_Motor.c:123:6
	cmp	r1, #0
	bne	.LBB2_9
	b	.LBB2_1
.LBB2_1:
	.loc	3 0 6                   @ ../MYx/Core/Src/MyDev_Motor.c:0:6
	movs	r0, #0
.Ltmp49:
	.loc	3 125 12 is_stmt 1      @ ../MYx/Core/Src/MyDev_Motor.c:125:12
	str	r0, [sp, #28]
	.loc	3 125 8 is_stmt 0       @ ../MYx/Core/Src/MyDev_Motor.c:125:8
	b	.LBB2_2
.LBB2_2:                                @ =>This Inner Loop Header: Depth=1
.Ltmp50:
	.loc	3 125 17                @ ../MYx/Core/Src/MyDev_Motor.c:125:17
	ldr	r0, [sp, #28]
	.loc	3 125 23                @ ../MYx/Core/Src/MyDev_Motor.c:125:23
	ldr	r1, [sp, #24]
.Ltmp51:
	.loc	3 125 3                 @ ../MYx/Core/Src/MyDev_Motor.c:125:3
	cmp	r0, r1
	bge	.LBB2_8
	b	.LBB2_3
.LBB2_3:                                @   in Loop: Header=BB2_2 Depth=1
	.loc	3 0 3                   @ ../MYx/Core/Src/MyDev_Motor.c:0:3
	add	r0, sp, #36
.Ltmp52:
	.loc	3 127 14 is_stmt 1      @ ../MYx/Core/Src/MyDev_Motor.c:127:14
	ldrb	r0, [r0]
	.loc	3 127 8 is_stmt 0       @ ../MYx/Core/Src/MyDev_Motor.c:127:8
	lsls	r0, r0, #4
	ldr	r1, __arm_cp.2_1
	adds	r0, r1, r0
	.loc	3 127 18                @ ../MYx/Core/Src/MyDev_Motor.c:127:18
	ldr	r0, [r0, #12]
.Ltmp53:
	.loc	3 127 8                 @ ../MYx/Core/Src/MyDev_Motor.c:127:8
	cmp	r0, #0
	bne	.LBB2_5
	b	.LBB2_4
.LBB2_4:
.Ltmp54:
	.loc	3 129 5 is_stmt 1       @ ../MYx/Core/Src/MyDev_Motor.c:129:5
	ldr	r0, __arm_cp.2_2
	bl	printf
	.loc	3 130 5                 @ ../MYx/Core/Src/MyDev_Motor.c:130:5
	b	.LBB2_8
.Ltmp55:
.LBB2_5:                                @   in Loop: Header=BB2_2 Depth=1
	.loc	3 0 5 is_stmt 0         @ ../MYx/Core/Src/MyDev_Motor.c:0:5
	add	r0, sp, #36
.Ltmp56:
	.loc	3 134 23 is_stmt 1      @ ../MYx/Core/Src/MyDev_Motor.c:134:23
	ldrb	r1, [r0]
	.loc	3 134 26 is_stmt 0      @ ../MYx/Core/Src/MyDev_Motor.c:134:26
	ldr	r2, [sp, #28]
	.loc	3 134 29                @ ../MYx/Core/Src/MyDev_Motor.c:134:29
	asrs	r3, r2, #31
	lsrs	r3, r3, #30
	adds	r3, r2, r3
	movs	r4, #252
	ands	r3, r4
	subs	r2, r2, r3
	.loc	3 134 5                 @ ../MYx/Core/Src/MyDev_Motor.c:134:5
	uxtb	r2, r2
	str	r0, [sp, #8]            @ 4-byte Spill
	mov	r0, r1
	mov	r1, r2
	bl	MyMoto_STPDriveEx
	.loc	3 135 5 is_stmt 1       @ ../MYx/Core/Src/MyDev_Motor.c:135:5
	ldr	r0, [sp, #8]            @ 4-byte Reload
	ldrb	r1, [r0]
	lsls	r1, r1, #4
	ldr	r2, __arm_cp.2_1
	adds	r1, r2, r1
	ldrb	r1, [r1, #8]
	movw	r2, #1000
	muls	r2, r1, r2
	mov	r0, r2
	bl	CLK_SysTickLongDelay
	b	.LBB2_6
.Ltmp57:
.LBB2_6:                                @   in Loop: Header=BB2_2 Depth=1
	.loc	3 137 3                 @ ../MYx/Core/Src/MyDev_Motor.c:137:3
	b	.LBB2_7
.Ltmp58:
.LBB2_7:                                @   in Loop: Header=BB2_2 Depth=1
	.loc	3 125 45                @ ../MYx/Core/Src/MyDev_Motor.c:125:45
	ldr	r0, [sp, #28]
	adds	r0, r0, #1
	str	r0, [sp, #28]
	.loc	3 125 3 is_stmt 0       @ ../MYx/Core/Src/MyDev_Motor.c:125:3
	b	.LBB2_2
.Ltmp59:
.LBB2_8:
	.loc	3 138 2 is_stmt 1       @ ../MYx/Core/Src/MyDev_Motor.c:138:2
	b	.LBB2_17
.Ltmp60:
.LBB2_9:
	.loc	3 141 14                @ ../MYx/Core/Src/MyDev_Motor.c:141:14
	ldr	r0, [sp, #24]
	.loc	3 141 12 is_stmt 0      @ ../MYx/Core/Src/MyDev_Motor.c:141:12
	str	r0, [sp, #28]
	.loc	3 141 8                 @ ../MYx/Core/Src/MyDev_Motor.c:141:8
	b	.LBB2_10
.LBB2_10:                               @ =>This Inner Loop Header: Depth=1
.Ltmp61:
	.loc	3 141 33                @ ../MYx/Core/Src/MyDev_Motor.c:141:33
	ldr	r0, [sp, #28]
.Ltmp62:
	.loc	3 141 3                 @ ../MYx/Core/Src/MyDev_Motor.c:141:3
	cmp	r0, #1
	blt	.LBB2_16
	b	.LBB2_11
.LBB2_11:                               @   in Loop: Header=BB2_10 Depth=1
	.loc	3 0 3                   @ ../MYx/Core/Src/MyDev_Motor.c:0:3
	add	r0, sp, #36
.Ltmp63:
	.loc	3 143 14 is_stmt 1      @ ../MYx/Core/Src/MyDev_Motor.c:143:14
	ldrb	r0, [r0]
	.loc	3 143 8 is_stmt 0       @ ../MYx/Core/Src/MyDev_Motor.c:143:8
	lsls	r0, r0, #4
	ldr	r1, __arm_cp.2_1
	adds	r0, r1, r0
	.loc	3 143 18                @ ../MYx/Core/Src/MyDev_Motor.c:143:18
	ldr	r0, [r0, #12]
.Ltmp64:
	.loc	3 143 8                 @ ../MYx/Core/Src/MyDev_Motor.c:143:8
	cmp	r0, #0
	bne	.LBB2_13
	b	.LBB2_12
.LBB2_12:
.Ltmp65:
	.loc	3 145 5 is_stmt 1       @ ../MYx/Core/Src/MyDev_Motor.c:145:5
	ldr	r0, __arm_cp.2_2
	bl	printf
	.loc	3 146 5                 @ ../MYx/Core/Src/MyDev_Motor.c:146:5
	b	.LBB2_16
.Ltmp66:
.LBB2_13:                               @   in Loop: Header=BB2_10 Depth=1
	.loc	3 0 5 is_stmt 0         @ ../MYx/Core/Src/MyDev_Motor.c:0:5
	add	r0, sp, #36
.Ltmp67:
	.loc	3 150 23 is_stmt 1      @ ../MYx/Core/Src/MyDev_Motor.c:150:23
	ldrb	r1, [r0]
	.loc	3 150 26 is_stmt 0      @ ../MYx/Core/Src/MyDev_Motor.c:150:26
	ldr	r2, [sp, #28]
	.loc	3 150 29                @ ../MYx/Core/Src/MyDev_Motor.c:150:29
	asrs	r3, r2, #31
	lsrs	r3, r3, #30
	adds	r3, r2, r3
	movs	r4, #252
	ands	r3, r4
	subs	r2, r2, r3
	.loc	3 150 5                 @ ../MYx/Core/Src/MyDev_Motor.c:150:5
	uxtb	r2, r2
	str	r0, [sp, #4]            @ 4-byte Spill
	mov	r0, r1
	mov	r1, r2
	bl	MyMoto_STPDriveEx
	.loc	3 151 5 is_stmt 1       @ ../MYx/Core/Src/MyDev_Motor.c:151:5
	ldr	r0, [sp, #4]            @ 4-byte Reload
	ldrb	r1, [r0]
	lsls	r1, r1, #4
	ldr	r2, __arm_cp.2_1
	adds	r1, r2, r1
	ldrb	r1, [r1, #8]
	movw	r2, #1000
	muls	r2, r1, r2
	mov	r0, r2
	bl	CLK_SysTickLongDelay
	b	.LBB2_14
.Ltmp68:
.LBB2_14:                               @   in Loop: Header=BB2_10 Depth=1
	.loc	3 153 3                 @ ../MYx/Core/Src/MyDev_Motor.c:153:3
	b	.LBB2_15
.Ltmp69:
.LBB2_15:                               @   in Loop: Header=BB2_10 Depth=1
	.loc	3 141 45                @ ../MYx/Core/Src/MyDev_Motor.c:141:45
	ldr	r0, [sp, #28]
	subs	r0, r0, #1
	str	r0, [sp, #28]
	.loc	3 141 3 is_stmt 0       @ ../MYx/Core/Src/MyDev_Motor.c:141:3
	b	.LBB2_10
.Ltmp70:
.LBB2_16:
	.loc	3 0 3                   @ ../MYx/Core/Src/MyDev_Motor.c:0:3
	b	.LBB2_17
.LBB2_17:
	add	r0, sp, #36
	.loc	3 155 20 is_stmt 1      @ ../MYx/Core/Src/MyDev_Motor.c:155:20
	ldrb	r0, [r0]
	movs	r1, #4
	.loc	3 155 2 is_stmt 0       @ ../MYx/Core/Src/MyDev_Motor.c:155:2
	bl	MyMoto_STPDriveEx
	.loc	3 156 1 is_stmt 1       @ ../MYx/Core/Src/MyDev_Motor.c:156:1
	add	sp, #40
	pop	{r4, pc}
.Ltmp71:
	.p2align	2
@ %bb.18:
	.loc	3 0 1 is_stmt 0         @ ../MYx/Core/Src/MyDev_Motor.c:0:1
__arm_cp.2_0:
	.long	1043595264              @ 0x3e340000
.Lcpi_end4:
	.size	__arm_cp.2_0, .Lcpi_end4-__arm_cp.2_0
__arm_cp.2_1:
	.long	STPMT
.Lcpi_end5:
	.size	__arm_cp.2_1, .Lcpi_end5-__arm_cp.2_1
__arm_cp.2_2:
	.long	.L.str
.Lcpi_end6:
	.size	__arm_cp.2_2, .Lcpi_end6-__arm_cp.2_2
.Lfunc_end2:
	.size	MyMoto_STPStartX, .Lfunc_end2-MyMoto_STPStartX
	.cfi_endproc
	.cantunwind
	.fnend
                                        @ -- End function
	.p2align	2               @ -- Begin function CLK_SysTickLongDelay
	.type	CLK_SysTickLongDelay,%function
	.code	16                      @ @CLK_SysTickLongDelay
	.thumb_func
CLK_SysTickLongDelay:
.Lfunc_begin3:
	.file	6 "C:\\Work\\Keil WorkSpace\\Furbo\\Keil" "../../Library/Nuvoton/M251_252_Series/StdDriver/inc\\clk.h"
	.loc	6 582 0 is_stmt 1       @ ../../Library/Nuvoton/M251_252_Series/StdDriver/inc\clk.h:582:0
	.fnstart
	.cfi_startproc
@ %bb.0:
	.pad	#8
	sub	sp, #8
	.cfi_def_cfa_offset 8
	str	r0, [sp, #4]
	ldr	r0, __arm_cp.3_0
.Ltmp72:
	.loc	6 586 14 prologue_end   @ ../../Library/Nuvoton/M251_252_Series/StdDriver/inc\clk.h:586:14
	str	r0, [sp]
	.loc	6 588 5                 @ ../../Library/Nuvoton/M251_252_Series/StdDriver/inc\clk.h:588:5
	b	.LBB3_1
.LBB3_1:                                @ =>This Loop Header: Depth=1
                                        @     Child Loop BB3_5 Depth 2
.Ltmp73:
	.loc	6 590 13                @ ../../Library/Nuvoton/M251_252_Series/StdDriver/inc\clk.h:590:13
	ldr	r0, [sp, #4]
	.loc	6 590 23 is_stmt 0      @ ../../Library/Nuvoton/M251_252_Series/StdDriver/inc\clk.h:590:23
	ldr	r1, [sp]
.Ltmp74:
	.loc	6 590 13                @ ../../Library/Nuvoton/M251_252_Series/StdDriver/inc\clk.h:590:13
	cmp	r0, r1
	bls	.LBB3_3
	b	.LBB3_2
.LBB3_2:                                @   in Loop: Header=BB3_1 Depth=1
.Ltmp75:
	.loc	6 592 24 is_stmt 1      @ ../../Library/Nuvoton/M251_252_Series/StdDriver/inc\clk.h:592:24
	ldr	r0, [sp]
	.loc	6 592 21 is_stmt 0      @ ../../Library/Nuvoton/M251_252_Series/StdDriver/inc\clk.h:592:21
	ldr	r1, [sp, #4]
	subs	r0, r1, r0
	str	r0, [sp, #4]
	.loc	6 593 9 is_stmt 1       @ ../../Library/Nuvoton/M251_252_Series/StdDriver/inc\clk.h:593:9
	b	.LBB3_4
.Ltmp76:
.LBB3_3:                                @   in Loop: Header=BB3_1 Depth=1
	.loc	6 596 24                @ ../../Library/Nuvoton/M251_252_Series/StdDriver/inc\clk.h:596:24
	ldr	r0, [sp, #4]
	.loc	6 596 22 is_stmt 0      @ ../../Library/Nuvoton/M251_252_Series/StdDriver/inc\clk.h:596:22
	str	r0, [sp]
	movs	r0, #0
	.loc	6 597 21 is_stmt 1      @ ../../Library/Nuvoton/M251_252_Series/StdDriver/inc\clk.h:597:21
	str	r0, [sp, #4]
	b	.LBB3_4
.Ltmp77:
.LBB3_4:                                @   in Loop: Header=BB3_1 Depth=1
	.loc	6 600 25                @ ../../Library/Nuvoton/M251_252_Series/StdDriver/inc\clk.h:600:25
	ldr	r0, [sp]
	.loc	6 600 36 is_stmt 0      @ ../../Library/Nuvoton/M251_252_Series/StdDriver/inc\clk.h:600:36
	ldr	r1, __arm_cp.3_1
	ldr	r1, [r1]
	.loc	6 600 34                @ ../../Library/Nuvoton/M251_252_Series/StdDriver/inc\clk.h:600:34
	muls	r1, r0, r1
	ldr	r0, __arm_cp.3_2
	.loc	6 600 23                @ ../../Library/Nuvoton/M251_252_Series/StdDriver/inc\clk.h:600:23
	str	r1, [r0]
	ldr	r0, __arm_cp.3_3
	movs	r1, #0
	.loc	6 601 23 is_stmt 1      @ ../../Library/Nuvoton/M251_252_Series/StdDriver/inc\clk.h:601:23
	str	r1, [r0]
	ldr	r0, __arm_cp.3_4
	movs	r1, #5
	.loc	6 602 23                @ ../../Library/Nuvoton/M251_252_Series/StdDriver/inc\clk.h:602:23
	str	r1, [r0]
	.loc	6 605 9                 @ ../../Library/Nuvoton/M251_252_Series/StdDriver/inc\clk.h:605:9
	b	.LBB3_5
.LBB3_5:                                @   Parent Loop BB3_1 Depth=1
                                        @ =>  This Inner Loop Header: Depth=2
	.loc	6 0 9 is_stmt 0         @ ../../Library/Nuvoton/M251_252_Series/StdDriver/inc\clk.h:0:9
	ldr	r0, __arm_cp.3_4
	.loc	6 605 26                @ ../../Library/Nuvoton/M251_252_Series/StdDriver/inc\clk.h:605:26
	ldr	r0, [r0]
	.loc	6 605 9                 @ ../../Library/Nuvoton/M251_252_Series/StdDriver/inc\clk.h:605:9
	lsls	r0, r0, #15
	cmp	r0, #0
	bmi	.LBB3_7
	b	.LBB3_6
.LBB3_6:                                @   in Loop: Header=BB3_5 Depth=2
	b	.LBB3_5
.LBB3_7:                                @   in Loop: Header=BB3_1 Depth=1
	.loc	6 0 9                   @ ../../Library/Nuvoton/M251_252_Series/StdDriver/inc\clk.h:0:9
	ldr	r0, __arm_cp.3_4
	movs	r1, #0
	.loc	6 610 23 is_stmt 1      @ ../../Library/Nuvoton/M251_252_Series/StdDriver/inc\clk.h:610:23
	str	r1, [r0]
	.loc	6 612 5                 @ ../../Library/Nuvoton/M251_252_Series/StdDriver/inc\clk.h:612:5
	b	.LBB3_8
.Ltmp78:
.LBB3_8:                                @   in Loop: Header=BB3_1 Depth=1
	.loc	6 612 14 is_stmt 0      @ ../../Library/Nuvoton/M251_252_Series/StdDriver/inc\clk.h:612:14
	ldr	r0, [sp, #4]
.Ltmp79:
	.loc	6 612 5                 @ ../../Library/Nuvoton/M251_252_Series/StdDriver/inc\clk.h:612:5
	cmp	r0, #0
	bne	.LBB3_1
	b	.LBB3_9
.Ltmp80:
.LBB3_9:
	.loc	6 614 1 is_stmt 1       @ ../../Library/Nuvoton/M251_252_Series/StdDriver/inc\clk.h:614:1
	add	sp, #8
	bx	lr
.Ltmp81:
	.p2align	2
@ %bb.10:
	.loc	6 0 1 is_stmt 0         @ ../../Library/Nuvoton/M251_252_Series/StdDriver/inc\clk.h:0:1
__arm_cp.3_0:
	.long	349525                  @ 0x55555
.Lcpi_end7:
	.size	__arm_cp.3_0, .Lcpi_end7-__arm_cp.3_0
__arm_cp.3_1:
	.long	CyclesPerUs
.Lcpi_end8:
	.size	__arm_cp.3_1, .Lcpi_end8-__arm_cp.3_1
__arm_cp.3_2:
	.long	3758153748              @ 0xe000e014
.Lcpi_end9:
	.size	__arm_cp.3_2, .Lcpi_end9-__arm_cp.3_2
__arm_cp.3_3:
	.long	3758153752              @ 0xe000e018
.Lcpi_end10:
	.size	__arm_cp.3_3, .Lcpi_end10-__arm_cp.3_3
__arm_cp.3_4:
	.long	3758153744              @ 0xe000e010
.Lcpi_end11:
	.size	__arm_cp.3_4, .Lcpi_end11-__arm_cp.3_4
.Lfunc_end3:
	.size	CLK_SysTickLongDelay, .Lfunc_end3-CLK_SysTickLongDelay
	.cfi_endproc
	.cantunwind
	.fnend
                                        @ -- End function
	.hidden	MyMoto_STPDriver        @ -- Begin function MyMoto_STPDriver
	.globl	MyMoto_STPDriver
	.p2align	2
	.type	MyMoto_STPDriver,%function
	.code	16                      @ @MyMoto_STPDriver
	.thumb_func
MyMoto_STPDriver:
.Lfunc_begin4:
	.loc	3 159 0 is_stmt 1       @ ../MYx/Core/Src/MyDev_Motor.c:159:0
	.fnstart
	.cfi_startproc
@ %bb.0:
	.pad	#8
	sub	sp, #8
	.cfi_def_cfa_offset 8
	str	r0, [sp, #4]
.Ltmp82:
	.loc	3 161 10 prologue_end   @ ../MYx/Core/Src/MyDev_Motor.c:161:10
	ldr	r0, [sp, #4]
	.loc	3 161 2 is_stmt 0       @ ../MYx/Core/Src/MyDev_Motor.c:161:2
	cmp	r0, #3
	str	r0, [sp]                @ 4-byte Spill
	bls	.LBB4_1
	b	.LBB4_39
.LBB4_1:
	.loc	3 0 2                   @ ../MYx/Core/Src/MyDev_Motor.c:0:2
	ldr	r0, [sp]                @ 4-byte Reload
	lsls	r1, r0, #2
	adr	r2, .LJTI4_0
	adds	r1, r2, r1
	mov	pc, r1
@ %bb.2:
	.p2align	2
.LJTI4_0:
	b.w	.LBB4_3
	b.w	.LBB4_12
	b.w	.LBB4_21
	b.w	.LBB4_30
.LBB4_3:
.Ltmp83:
	.loc	3 164 3 is_stmt 1       @ ../MYx/Core/Src/MyDev_Motor.c:164:3
	b	.LBB4_4
.LBB4_4:
.Ltmp84:
	.loc	3 164 3 is_stmt 0       @ ../MYx/Core/Src/MyDev_Motor.c:164:3
	ldr	r0, __arm_cp.4_0
	ldrh	r1, [r0]
	mvns	r1, r1
	ldr	r2, __arm_cp.4_1
	ldr	r3, [r2, #8]
	str	r1, [r3, #12]
	ldrh	r0, [r0]
	ldr	r1, [r2, #8]
	str	r0, [r1, #8]
	b	.LBB4_5
.Ltmp85:
.LBB4_5:
	.loc	3 165 3 is_stmt 1       @ ../MYx/Core/Src/MyDev_Motor.c:165:3
	b	.LBB4_6
.LBB4_6:
.Ltmp86:
	.loc	3 165 3 is_stmt 0       @ ../MYx/Core/Src/MyDev_Motor.c:165:3
	ldr	r0, __arm_cp.4_0
	ldrh	r1, [r0, #2]
	mvns	r1, r1
	ldr	r2, __arm_cp.4_1
	ldr	r3, [r2, #8]
	str	r1, [r3, #12]
	ldrh	r0, [r0, #2]
	ldr	r1, [r2, #8]
	str	r0, [r1, #8]
	b	.LBB4_7
.Ltmp87:
.LBB4_7:
	.loc	3 166 3 is_stmt 1       @ ../MYx/Core/Src/MyDev_Motor.c:166:3
	b	.LBB4_8
.LBB4_8:
.Ltmp88:
	.loc	3 166 3 is_stmt 0       @ ../MYx/Core/Src/MyDev_Motor.c:166:3
	ldr	r0, __arm_cp.4_0
	ldrh	r1, [r0, #4]
	mvns	r1, r1
	ldr	r2, __arm_cp.4_1
	ldr	r3, [r2, #8]
	str	r1, [r3, #12]
	ldrh	r0, [r0, #4]
	mvns	r0, r0
	ldr	r1, [r2, #8]
	str	r0, [r1, #8]
	b	.LBB4_9
.Ltmp89:
.LBB4_9:
	.loc	3 167 3 is_stmt 1       @ ../MYx/Core/Src/MyDev_Motor.c:167:3
	b	.LBB4_10
.LBB4_10:
.Ltmp90:
	.loc	3 167 3 is_stmt 0       @ ../MYx/Core/Src/MyDev_Motor.c:167:3
	ldr	r0, __arm_cp.4_0
	ldrh	r1, [r0, #6]
	mvns	r1, r1
	ldr	r2, __arm_cp.4_1
	ldr	r3, [r2, #8]
	str	r1, [r3, #12]
	ldrh	r0, [r0, #6]
	mvns	r0, r0
	ldr	r1, [r2, #8]
	str	r0, [r1, #8]
	b	.LBB4_11
.Ltmp91:
.LBB4_11:
	.loc	3 168 3 is_stmt 1       @ ../MYx/Core/Src/MyDev_Motor.c:168:3
	b	.LBB4_48
.LBB4_12:
	.loc	3 171 3                 @ ../MYx/Core/Src/MyDev_Motor.c:171:3
	b	.LBB4_13
.LBB4_13:
.Ltmp92:
	.loc	3 171 3 is_stmt 0       @ ../MYx/Core/Src/MyDev_Motor.c:171:3
	ldr	r0, __arm_cp.4_0
	ldrh	r1, [r0]
	mvns	r1, r1
	ldr	r2, __arm_cp.4_1
	ldr	r3, [r2, #8]
	str	r1, [r3, #12]
	ldrh	r0, [r0]
	mvns	r0, r0
	ldr	r1, [r2, #8]
	str	r0, [r1, #8]
	b	.LBB4_14
.Ltmp93:
.LBB4_14:
	.loc	3 172 3 is_stmt 1       @ ../MYx/Core/Src/MyDev_Motor.c:172:3
	b	.LBB4_15
.LBB4_15:
.Ltmp94:
	.loc	3 172 3 is_stmt 0       @ ../MYx/Core/Src/MyDev_Motor.c:172:3
	ldr	r0, __arm_cp.4_0
	ldrh	r1, [r0, #2]
	mvns	r1, r1
	ldr	r2, __arm_cp.4_1
	ldr	r3, [r2, #8]
	str	r1, [r3, #12]
	ldrh	r0, [r0, #2]
	ldr	r1, [r2, #8]
	str	r0, [r1, #8]
	b	.LBB4_16
.Ltmp95:
.LBB4_16:
	.loc	3 173 3 is_stmt 1       @ ../MYx/Core/Src/MyDev_Motor.c:173:3
	b	.LBB4_17
.LBB4_17:
.Ltmp96:
	.loc	3 173 3 is_stmt 0       @ ../MYx/Core/Src/MyDev_Motor.c:173:3
	ldr	r0, __arm_cp.4_0
	ldrh	r1, [r0, #4]
	mvns	r1, r1
	ldr	r2, __arm_cp.4_1
	ldr	r3, [r2, #8]
	str	r1, [r3, #12]
	ldrh	r0, [r0, #4]
	ldr	r1, [r2, #8]
	str	r0, [r1, #8]
	b	.LBB4_18
.Ltmp97:
.LBB4_18:
	.loc	3 174 3 is_stmt 1       @ ../MYx/Core/Src/MyDev_Motor.c:174:3
	b	.LBB4_19
.LBB4_19:
.Ltmp98:
	.loc	3 174 3 is_stmt 0       @ ../MYx/Core/Src/MyDev_Motor.c:174:3
	ldr	r0, __arm_cp.4_0
	ldrh	r1, [r0, #6]
	mvns	r1, r1
	ldr	r2, __arm_cp.4_1
	ldr	r3, [r2, #8]
	str	r1, [r3, #12]
	ldrh	r0, [r0, #6]
	mvns	r0, r0
	ldr	r1, [r2, #8]
	str	r0, [r1, #8]
	b	.LBB4_20
.Ltmp99:
.LBB4_20:
	.loc	3 175 3 is_stmt 1       @ ../MYx/Core/Src/MyDev_Motor.c:175:3
	b	.LBB4_48
.LBB4_21:
	.loc	3 178 3                 @ ../MYx/Core/Src/MyDev_Motor.c:178:3
	b	.LBB4_22
.LBB4_22:
.Ltmp100:
	.loc	3 178 3 is_stmt 0       @ ../MYx/Core/Src/MyDev_Motor.c:178:3
	ldr	r0, __arm_cp.4_0
	ldrh	r1, [r0]
	mvns	r1, r1
	ldr	r2, __arm_cp.4_1
	ldr	r3, [r2, #8]
	str	r1, [r3, #12]
	ldrh	r0, [r0]
	mvns	r0, r0
	ldr	r1, [r2, #8]
	str	r0, [r1, #8]
	b	.LBB4_23
.Ltmp101:
.LBB4_23:
	.loc	3 179 3 is_stmt 1       @ ../MYx/Core/Src/MyDev_Motor.c:179:3
	b	.LBB4_24
.LBB4_24:
.Ltmp102:
	.loc	3 179 3 is_stmt 0       @ ../MYx/Core/Src/MyDev_Motor.c:179:3
	ldr	r0, __arm_cp.4_0
	ldrh	r1, [r0, #2]
	mvns	r1, r1
	ldr	r2, __arm_cp.4_1
	ldr	r3, [r2, #8]
	str	r1, [r3, #12]
	ldrh	r0, [r0, #2]
	mvns	r0, r0
	ldr	r1, [r2, #8]
	str	r0, [r1, #8]
	b	.LBB4_25
.Ltmp103:
.LBB4_25:
	.loc	3 180 3 is_stmt 1       @ ../MYx/Core/Src/MyDev_Motor.c:180:3
	b	.LBB4_26
.LBB4_26:
.Ltmp104:
	.loc	3 180 3 is_stmt 0       @ ../MYx/Core/Src/MyDev_Motor.c:180:3
	ldr	r0, __arm_cp.4_0
	ldrh	r1, [r0, #4]
	mvns	r1, r1
	ldr	r2, __arm_cp.4_1
	ldr	r3, [r2, #8]
	str	r1, [r3, #12]
	ldrh	r0, [r0, #4]
	ldr	r1, [r2, #8]
	str	r0, [r1, #8]
	b	.LBB4_27
.Ltmp105:
.LBB4_27:
	.loc	3 181 3 is_stmt 1       @ ../MYx/Core/Src/MyDev_Motor.c:181:3
	b	.LBB4_28
.LBB4_28:
.Ltmp106:
	.loc	3 181 3 is_stmt 0       @ ../MYx/Core/Src/MyDev_Motor.c:181:3
	ldr	r0, __arm_cp.4_0
	ldrh	r1, [r0, #6]
	mvns	r1, r1
	ldr	r2, __arm_cp.4_1
	ldr	r3, [r2, #8]
	str	r1, [r3, #12]
	ldrh	r0, [r0, #6]
	ldr	r1, [r2, #8]
	str	r0, [r1, #8]
	b	.LBB4_29
.Ltmp107:
.LBB4_29:
	.loc	3 182 3 is_stmt 1       @ ../MYx/Core/Src/MyDev_Motor.c:182:3
	b	.LBB4_48
.LBB4_30:
	.loc	3 185 3                 @ ../MYx/Core/Src/MyDev_Motor.c:185:3
	b	.LBB4_31
.LBB4_31:
.Ltmp108:
	.loc	3 185 3 is_stmt 0       @ ../MYx/Core/Src/MyDev_Motor.c:185:3
	ldr	r0, __arm_cp.4_0
	ldrh	r1, [r0]
	mvns	r1, r1
	ldr	r2, __arm_cp.4_1
	ldr	r3, [r2, #8]
	str	r1, [r3, #12]
	ldrh	r0, [r0]
	ldr	r1, [r2, #8]
	str	r0, [r1, #8]
	b	.LBB4_32
.Ltmp109:
.LBB4_32:
	.loc	3 186 3 is_stmt 1       @ ../MYx/Core/Src/MyDev_Motor.c:186:3
	b	.LBB4_33
.LBB4_33:
.Ltmp110:
	.loc	3 186 3 is_stmt 0       @ ../MYx/Core/Src/MyDev_Motor.c:186:3
	ldr	r0, __arm_cp.4_0
	ldrh	r1, [r0, #2]
	mvns	r1, r1
	ldr	r2, __arm_cp.4_1
	ldr	r3, [r2, #8]
	str	r1, [r3, #12]
	ldrh	r0, [r0, #2]
	mvns	r0, r0
	ldr	r1, [r2, #8]
	str	r0, [r1, #8]
	b	.LBB4_34
.Ltmp111:
.LBB4_34:
	.loc	3 187 3 is_stmt 1       @ ../MYx/Core/Src/MyDev_Motor.c:187:3
	b	.LBB4_35
.LBB4_35:
.Ltmp112:
	.loc	3 187 3 is_stmt 0       @ ../MYx/Core/Src/MyDev_Motor.c:187:3
	ldr	r0, __arm_cp.4_0
	ldrh	r1, [r0, #4]
	mvns	r1, r1
	ldr	r2, __arm_cp.4_1
	ldr	r3, [r2, #8]
	str	r1, [r3, #12]
	ldrh	r0, [r0, #4]
	mvns	r0, r0
	ldr	r1, [r2, #8]
	str	r0, [r1, #8]
	b	.LBB4_36
.Ltmp113:
.LBB4_36:
	.loc	3 188 3 is_stmt 1       @ ../MYx/Core/Src/MyDev_Motor.c:188:3
	b	.LBB4_37
.LBB4_37:
.Ltmp114:
	.loc	3 188 3 is_stmt 0       @ ../MYx/Core/Src/MyDev_Motor.c:188:3
	ldr	r0, __arm_cp.4_0
	ldrh	r1, [r0, #6]
	mvns	r1, r1
	ldr	r2, __arm_cp.4_1
	ldr	r3, [r2, #8]
	str	r1, [r3, #12]
	ldrh	r0, [r0, #6]
	ldr	r1, [r2, #8]
	str	r0, [r1, #8]
	b	.LBB4_38
.Ltmp115:
.LBB4_38:
	.loc	3 189 3 is_stmt 1       @ ../MYx/Core/Src/MyDev_Motor.c:189:3
	b	.LBB4_48
.LBB4_39:
	.loc	3 192 3                 @ ../MYx/Core/Src/MyDev_Motor.c:192:3
	b	.LBB4_40
.LBB4_40:
.Ltmp116:
	.loc	3 192 3 is_stmt 0       @ ../MYx/Core/Src/MyDev_Motor.c:192:3
	ldr	r0, __arm_cp.4_0
	ldrh	r1, [r0]
	mvns	r1, r1
	ldr	r2, __arm_cp.4_1
	ldr	r3, [r2, #8]
	str	r1, [r3, #12]
	ldrh	r0, [r0]
	mvns	r0, r0
	ldr	r1, [r2, #8]
	str	r0, [r1, #8]
	b	.LBB4_41
.Ltmp117:
.LBB4_41:
	.loc	3 193 3 is_stmt 1       @ ../MYx/Core/Src/MyDev_Motor.c:193:3
	b	.LBB4_42
.LBB4_42:
.Ltmp118:
	.loc	3 193 3 is_stmt 0       @ ../MYx/Core/Src/MyDev_Motor.c:193:3
	ldr	r0, __arm_cp.4_0
	ldrh	r1, [r0, #2]
	mvns	r1, r1
	ldr	r2, __arm_cp.4_1
	ldr	r3, [r2, #8]
	str	r1, [r3, #12]
	ldrh	r0, [r0, #2]
	mvns	r0, r0
	ldr	r1, [r2, #8]
	str	r0, [r1, #8]
	b	.LBB4_43
.Ltmp119:
.LBB4_43:
	.loc	3 194 3 is_stmt 1       @ ../MYx/Core/Src/MyDev_Motor.c:194:3
	b	.LBB4_44
.LBB4_44:
.Ltmp120:
	.loc	3 194 3 is_stmt 0       @ ../MYx/Core/Src/MyDev_Motor.c:194:3
	ldr	r0, __arm_cp.4_0
	ldrh	r1, [r0, #4]
	mvns	r1, r1
	ldr	r2, __arm_cp.4_1
	ldr	r3, [r2, #8]
	str	r1, [r3, #12]
	ldrh	r0, [r0, #4]
	mvns	r0, r0
	ldr	r1, [r2, #8]
	str	r0, [r1, #8]
	b	.LBB4_45
.Ltmp121:
.LBB4_45:
	.loc	3 195 3 is_stmt 1       @ ../MYx/Core/Src/MyDev_Motor.c:195:3
	b	.LBB4_46
.LBB4_46:
.Ltmp122:
	.loc	3 195 3 is_stmt 0       @ ../MYx/Core/Src/MyDev_Motor.c:195:3
	ldr	r0, __arm_cp.4_0
	ldrh	r1, [r0, #6]
	mvns	r1, r1
	ldr	r2, __arm_cp.4_1
	ldr	r3, [r2, #8]
	str	r1, [r3, #12]
	ldrh	r0, [r0, #6]
	mvns	r0, r0
	ldr	r1, [r2, #8]
	str	r0, [r1, #8]
	b	.LBB4_47
.Ltmp123:
.LBB4_47:
	.loc	3 196 3 is_stmt 1       @ ../MYx/Core/Src/MyDev_Motor.c:196:3
	b	.LBB4_48
.Ltmp124:
.LBB4_48:
	.loc	3 267 1                 @ ../MYx/Core/Src/MyDev_Motor.c:267:1
	add	sp, #8
	bx	lr
.Ltmp125:
	.p2align	2
@ %bb.49:
	.loc	3 0 1 is_stmt 0         @ ../MYx/Core/Src/MyDev_Motor.c:0:1
__arm_cp.4_0:
	.long	GPIO_Pin
.Lcpi_end12:
	.size	__arm_cp.4_0, .Lcpi_end12-__arm_cp.4_0
__arm_cp.4_1:
	.long	GPIO_Port
.Lcpi_end13:
	.size	__arm_cp.4_1, .Lcpi_end13-__arm_cp.4_1
.Lfunc_end4:
	.size	MyMoto_STPDriver, .Lfunc_end4-MyMoto_STPDriver
	.cfi_endproc
	.cantunwind
	.fnend
                                        @ -- End function
	.hidden	MyMoto_STPStartEx       @ -- Begin function MyMoto_STPStartEx
	.globl	MyMoto_STPStartEx
	.p2align	1
	.type	MyMoto_STPStartEx,%function
	.code	16                      @ @MyMoto_STPStartEx
	.thumb_func
MyMoto_STPStartEx:
.Lfunc_begin5:
	.loc	3 270 0 is_stmt 1       @ ../MYx/Core/Src/MyDev_Motor.c:270:0
	.fnstart
	.cfi_startproc
@ %bb.0:
	.save	{r7, lr}
	push	{r7, lr}
	.cfi_def_cfa_offset 8
	.cfi_offset lr, -4
	.cfi_offset r7, -8
	movs	r0, #0
.Ltmp126:
	.loc	3 272 2 prologue_end    @ ../MYx/Core/Src/MyDev_Motor.c:272:2
	bl	MyMoto_STPStartX
	.loc	3 273 1                 @ ../MYx/Core/Src/MyDev_Motor.c:273:1
	pop	{r7, pc}
.Ltmp127:
.Lfunc_end5:
	.size	MyMoto_STPStartEx, .Lfunc_end5-MyMoto_STPStartEx
	.cfi_endproc
	.cantunwind
	.fnend
                                        @ -- End function
	.hidden	MyMoto_STPStartCCEx     @ -- Begin function MyMoto_STPStartCCEx
	.globl	MyMoto_STPStartCCEx
	.p2align	1
	.type	MyMoto_STPStartCCEx,%function
	.code	16                      @ @MyMoto_STPStartCCEx
	.thumb_func
MyMoto_STPStartCCEx:
.Lfunc_begin6:
	.loc	3 276 0                 @ ../MYx/Core/Src/MyDev_Motor.c:276:0
	.fnstart
	.cfi_startproc
@ %bb.0:
	.loc	3 278 1 prologue_end    @ ../MYx/Core/Src/MyDev_Motor.c:278:1
	bx	lr
.Ltmp128:
.Lfunc_end6:
	.size	MyMoto_STPStartCCEx, .Lfunc_end6-MyMoto_STPStartCCEx
	.cfi_endproc
	.cantunwind
	.fnend
                                        @ -- End function
	.hidden	MyMoto_STPStartDemo     @ -- Begin function MyMoto_STPStartDemo
	.globl	MyMoto_STPStartDemo
	.p2align	1
	.type	MyMoto_STPStartDemo,%function
	.code	16                      @ @MyMoto_STPStartDemo
	.thumb_func
MyMoto_STPStartDemo:
.Lfunc_begin7:
	.loc	3 281 0                 @ ../MYx/Core/Src/MyDev_Motor.c:281:0
	.fnstart
	.cfi_startproc
@ %bb.0:
	.save	{r7, lr}
	push	{r7, lr}
	.cfi_def_cfa_offset 8
	.cfi_offset lr, -4
	.cfi_offset r7, -8
	.pad	#16
	sub	sp, #16
	.cfi_def_cfa_offset 24
	movs	r0, #0
.Ltmp129:
	.loc	3 283 17 prologue_end   @ ../MYx/Core/Src/MyDev_Motor.c:283:17
	str	r0, [sp, #4]            @ 4-byte Spill
	bl	MyCLI_UnsignedCommandArgument
	.loc	3 283 8 is_stmt 0       @ ../MYx/Core/Src/MyDev_Motor.c:283:8
	str	r0, [sp, #8]
.Ltmp130:
	.loc	3 284 8 is_stmt 1       @ ../MYx/Core/Src/MyDev_Motor.c:284:8
	ldr	r0, [sp, #4]            @ 4-byte Reload
	str	r0, [sp, #12]
	.loc	3 284 6 is_stmt 0       @ ../MYx/Core/Src/MyDev_Motor.c:284:6
	b	.LBB7_1
.LBB7_1:                                @ =>This Inner Loop Header: Depth=1
.Ltmp131:
	.loc	3 284 14                @ ../MYx/Core/Src/MyDev_Motor.c:284:14
	ldr	r0, [sp, #12]
	.loc	3 284 18                @ ../MYx/Core/Src/MyDev_Motor.c:284:18
	ldr	r1, [sp, #8]
.Ltmp132:
	.loc	3 284 2                 @ ../MYx/Core/Src/MyDev_Motor.c:284:2
	cmp	r0, r1
	bge	.LBB7_4
	b	.LBB7_2
.LBB7_2:                                @   in Loop: Header=BB7_1 Depth=1
.Ltmp133:
	.loc	3 287 2 is_stmt 1       @ ../MYx/Core/Src/MyDev_Motor.c:287:2
	b	.LBB7_3
.Ltmp134:
.LBB7_3:                                @   in Loop: Header=BB7_1 Depth=1
	.loc	3 284 24                @ ../MYx/Core/Src/MyDev_Motor.c:284:24
	ldr	r0, [sp, #12]
	adds	r0, r0, #1
	str	r0, [sp, #12]
	.loc	3 284 2 is_stmt 0       @ ../MYx/Core/Src/MyDev_Motor.c:284:2
	b	.LBB7_1
.Ltmp135:
.LBB7_4:
	.loc	3 288 1 is_stmt 1       @ ../MYx/Core/Src/MyDev_Motor.c:288:1
	add	sp, #16
	pop	{r7, pc}
.Ltmp136:
.Lfunc_end7:
	.size	MyMoto_STPStartDemo, .Lfunc_end7-MyMoto_STPStartDemo
	.cfi_endproc
	.cantunwind
	.fnend
                                        @ -- End function
	.hidden	MyMoto_STPStart         @ -- Begin function MyMoto_STPStart
	.globl	MyMoto_STPStart
	.p2align	2
	.type	MyMoto_STPStart,%function
	.code	16                      @ @MyMoto_STPStart
	.thumb_func
MyMoto_STPStart:
.Lfunc_begin8:
	.loc	3 291 0                 @ ../MYx/Core/Src/MyDev_Motor.c:291:0
	.fnstart
	.cfi_startproc
@ %bb.0:
	.save	{r4, lr}
	push	{r4, lr}
	.cfi_def_cfa_offset 8
	.cfi_offset lr, -4
	.cfi_offset r4, -8
	.pad	#40
	sub	sp, #40
	.cfi_def_cfa_offset 48
	mov	r3, r2
	mov	r4, r1
	str	r0, [sp, #36]
	add	r0, sp, #32
	strb	r1, [r0]
	add	r1, sp, #28
	strb	r2, [r1]
	ldr	r1, __arm_cp.8_0
.Ltmp137:
	.loc	3 292 8 prologue_end    @ ../MYx/Core/Src/MyDev_Motor.c:292:8
	str	r1, [sp, #24]
	.loc	3 293 38                @ ../MYx/Core/Src/MyDev_Motor.c:293:38
	ldr	r1, [sp, #36]
	str	r0, [sp, #12]           @ 4-byte Spill
	mov	r0, r1
	str	r3, [sp, #8]            @ 4-byte Spill
	str	r4, [sp, #4]            @ 4-byte Spill
	bl	__aeabi_i2f
	.loc	3 293 44 is_stmt 0      @ ../MYx/Core/Src/MyDev_Motor.c:293:44
	ldr	r1, [sp, #24]
	.loc	3 293 43                @ ../MYx/Core/Src/MyDev_Motor.c:293:43
	bl	__aeabi_fdiv
	.loc	3 293 31                @ ../MYx/Core/Src/MyDev_Motor.c:293:31
	bl	__aeabi_f2iz
	.loc	3 293 11                @ ../MYx/Core/Src/MyDev_Motor.c:293:11
	str	r0, [sp, #16]
.Ltmp138:
	.loc	3 296 6 is_stmt 1       @ ../MYx/Core/Src/MyDev_Motor.c:296:6
	ldr	r0, [sp, #12]           @ 4-byte Reload
	ldrb	r1, [r0]
.Ltmp139:
	.loc	3 296 6 is_stmt 0       @ ../MYx/Core/Src/MyDev_Motor.c:296:6
	cmp	r1, #0
	bne	.LBB8_6
	b	.LBB8_1
.LBB8_1:
	.loc	3 0 6                   @ ../MYx/Core/Src/MyDev_Motor.c:0:6
	movs	r0, #0
.Ltmp140:
	.loc	3 298 12 is_stmt 1      @ ../MYx/Core/Src/MyDev_Motor.c:298:12
	str	r0, [sp, #20]
	.loc	3 298 8 is_stmt 0       @ ../MYx/Core/Src/MyDev_Motor.c:298:8
	b	.LBB8_2
.LBB8_2:                                @ =>This Inner Loop Header: Depth=1
.Ltmp141:
	.loc	3 298 17                @ ../MYx/Core/Src/MyDev_Motor.c:298:17
	ldr	r0, [sp, #20]
	.loc	3 298 23                @ ../MYx/Core/Src/MyDev_Motor.c:298:23
	ldr	r1, [sp, #16]
.Ltmp142:
	.loc	3 298 3                 @ ../MYx/Core/Src/MyDev_Motor.c:298:3
	cmp	r0, r1
	bge	.LBB8_5
	b	.LBB8_3
.LBB8_3:                                @   in Loop: Header=BB8_2 Depth=1
.Ltmp143:
	.loc	3 300 21 is_stmt 1      @ ../MYx/Core/Src/MyDev_Motor.c:300:21
	ldr	r0, [sp, #20]
	.loc	3 300 24 is_stmt 0      @ ../MYx/Core/Src/MyDev_Motor.c:300:24
	asrs	r1, r0, #31
	lsrs	r1, r1, #30
	adds	r1, r0, r1
	movs	r2, #3
	bics	r1, r2
	subs	r0, r0, r1
	.loc	3 300 4                 @ ../MYx/Core/Src/MyDev_Motor.c:300:4
	bl	MyMoto_STPDriver
	add	r0, sp, #28
	.loc	3 301 4 is_stmt 1       @ ../MYx/Core/Src/MyDev_Motor.c:301:4
	ldrb	r0, [r0]
	movw	r1, #1000
	muls	r1, r0, r1
	mov	r0, r1
	bl	CLK_SysTickLongDelay
	.loc	3 302 3                 @ ../MYx/Core/Src/MyDev_Motor.c:302:3
	b	.LBB8_4
.Ltmp144:
.LBB8_4:                                @   in Loop: Header=BB8_2 Depth=1
	.loc	3 298 45                @ ../MYx/Core/Src/MyDev_Motor.c:298:45
	ldr	r0, [sp, #20]
	adds	r0, r0, #1
	str	r0, [sp, #20]
	.loc	3 298 3 is_stmt 0       @ ../MYx/Core/Src/MyDev_Motor.c:298:3
	b	.LBB8_2
.Ltmp145:
.LBB8_5:
	.loc	3 303 2 is_stmt 1       @ ../MYx/Core/Src/MyDev_Motor.c:303:2
	b	.LBB8_11
.Ltmp146:
.LBB8_6:
	.loc	3 306 14                @ ../MYx/Core/Src/MyDev_Motor.c:306:14
	ldr	r0, [sp, #16]
	.loc	3 306 12 is_stmt 0      @ ../MYx/Core/Src/MyDev_Motor.c:306:12
	str	r0, [sp, #20]
	.loc	3 306 8                 @ ../MYx/Core/Src/MyDev_Motor.c:306:8
	b	.LBB8_7
.LBB8_7:                                @ =>This Inner Loop Header: Depth=1
.Ltmp147:
	.loc	3 306 33                @ ../MYx/Core/Src/MyDev_Motor.c:306:33
	ldr	r0, [sp, #20]
.Ltmp148:
	.loc	3 306 3                 @ ../MYx/Core/Src/MyDev_Motor.c:306:3
	cmp	r0, #1
	blt	.LBB8_10
	b	.LBB8_8
.LBB8_8:                                @   in Loop: Header=BB8_7 Depth=1
.Ltmp149:
	.loc	3 308 21 is_stmt 1      @ ../MYx/Core/Src/MyDev_Motor.c:308:21
	ldr	r0, [sp, #20]
	.loc	3 308 24 is_stmt 0      @ ../MYx/Core/Src/MyDev_Motor.c:308:24
	asrs	r1, r0, #31
	lsrs	r1, r1, #30
	adds	r1, r0, r1
	movs	r2, #3
	bics	r1, r2
	subs	r0, r0, r1
	.loc	3 308 4                 @ ../MYx/Core/Src/MyDev_Motor.c:308:4
	bl	MyMoto_STPDriver
	add	r0, sp, #28
	.loc	3 309 4 is_stmt 1       @ ../MYx/Core/Src/MyDev_Motor.c:309:4
	ldrb	r0, [r0]
	movw	r1, #1000
	muls	r1, r0, r1
	mov	r0, r1
	bl	CLK_SysTickLongDelay
	.loc	3 310 3                 @ ../MYx/Core/Src/MyDev_Motor.c:310:3
	b	.LBB8_9
.Ltmp150:
.LBB8_9:                                @   in Loop: Header=BB8_7 Depth=1
	.loc	3 306 45                @ ../MYx/Core/Src/MyDev_Motor.c:306:45
	ldr	r0, [sp, #20]
	subs	r0, r0, #1
	str	r0, [sp, #20]
	.loc	3 306 3 is_stmt 0       @ ../MYx/Core/Src/MyDev_Motor.c:306:3
	b	.LBB8_7
.Ltmp151:
.LBB8_10:
	.loc	3 0 3                   @ ../MYx/Core/Src/MyDev_Motor.c:0:3
	b	.LBB8_11
.LBB8_11:
	movs	r0, #4
	.loc	3 312 2 is_stmt 1       @ ../MYx/Core/Src/MyDev_Motor.c:312:2
	bl	MyMoto_STPDriver
	.loc	3 313 1                 @ ../MYx/Core/Src/MyDev_Motor.c:313:1
	add	sp, #40
	pop	{r4, pc}
.Ltmp152:
	.p2align	2
@ %bb.12:
	.loc	3 0 1 is_stmt 0         @ ../MYx/Core/Src/MyDev_Motor.c:0:1
__arm_cp.8_0:
	.long	1043595264              @ 0x3e340000
.Lcpi_end14:
	.size	__arm_cp.8_0, .Lcpi_end14-__arm_cp.8_0
.Lfunc_end8:
	.size	MyMoto_STPStart, .Lfunc_end8-MyMoto_STPStart
	.cfi_endproc
	.cantunwind
	.fnend
                                        @ -- End function
	.hidden	MyMoto_CLI_STPMTStart   @ -- Begin function MyMoto_CLI_STPMTStart
	.globl	MyMoto_CLI_STPMTStart
	.p2align	2
	.type	MyMoto_CLI_STPMTStart,%function
	.code	16                      @ @MyMoto_CLI_STPMTStart
	.thumb_func
MyMoto_CLI_STPMTStart:
.Lfunc_begin9:
	.loc	3 318 0 is_stmt 1       @ ../MYx/Core/Src/MyDev_Motor.c:318:0
	.fnstart
	.cfi_startproc
@ %bb.0:
	.save	{r7, lr}
	push	{r7, lr}
	.cfi_def_cfa_offset 8
	.cfi_offset lr, -4
	.cfi_offset r7, -8
	.pad	#8
	sub	sp, #8
	.cfi_def_cfa_offset 16
	movs	r0, #0
.Ltmp153:
	.loc	3 319 26 prologue_end   @ ../MYx/Core/Src/MyDev_Motor.c:319:26
	bl	MyCLI_UnsignedCommandArgument
	add	r1, sp, #4
	.loc	3 319 11 is_stmt 0      @ ../MYx/Core/Src/MyDev_Motor.c:319:11
	strb	r0, [r1]
.Ltmp154:
	.loc	3 320 6 is_stmt 1       @ ../MYx/Core/Src/MyDev_Motor.c:320:6
	ldrb	r0, [r1]
.Ltmp155:
	.loc	3 320 6 is_stmt 0       @ ../MYx/Core/Src/MyDev_Motor.c:320:6
	cmp	r0, #2
	blt	.LBB9_2
	b	.LBB9_1
.LBB9_1:
.Ltmp156:
	.loc	3 322 3 is_stmt 1       @ ../MYx/Core/Src/MyDev_Motor.c:322:3
	ldr	r0, __arm_cp.9_0
	bl	printf
	.loc	3 323 3                 @ ../MYx/Core/Src/MyDev_Motor.c:323:3
	b	.LBB9_3
.Ltmp157:
.LBB9_2:
	.loc	3 0 3 is_stmt 0         @ ../MYx/Core/Src/MyDev_Motor.c:0:3
	add	r0, sp, #4
	.loc	3 325 19 is_stmt 1      @ ../MYx/Core/Src/MyDev_Motor.c:325:19
	ldrb	r0, [r0]
	.loc	3 325 2 is_stmt 0       @ ../MYx/Core/Src/MyDev_Motor.c:325:2
	bl	MyMoto_STPStartX
	.loc	3 326 1 is_stmt 1       @ ../MYx/Core/Src/MyDev_Motor.c:326:1
	b	.LBB9_3
.LBB9_3:
	add	sp, #8
	pop	{r7, pc}
.Ltmp158:
	.p2align	2
@ %bb.4:
	.loc	3 0 1 is_stmt 0         @ ../MYx/Core/Src/MyDev_Motor.c:0:1
__arm_cp.9_0:
	.long	.L.str.1
.Lcpi_end15:
	.size	__arm_cp.9_0, .Lcpi_end15-__arm_cp.9_0
.Lfunc_end9:
	.size	MyMoto_CLI_STPMTStart, .Lfunc_end9-MyMoto_CLI_STPMTStart
	.cfi_endproc
	.cantunwind
	.fnend
                                        @ -- End function
	.hidden	MyMoto_CLI_STPMTSet     @ -- Begin function MyMoto_CLI_STPMTSet
	.globl	MyMoto_CLI_STPMTSet
	.p2align	2
	.type	MyMoto_CLI_STPMTSet,%function
	.code	16                      @ @MyMoto_CLI_STPMTSet
	.thumb_func
MyMoto_CLI_STPMTSet:
.Lfunc_begin10:
	.loc	3 329 0 is_stmt 1       @ ../MYx/Core/Src/MyDev_Motor.c:329:0
	.fnstart
	.cfi_startproc
@ %bb.0:
	.save	{r4, lr}
	push	{r4, lr}
	.cfi_def_cfa_offset 8
	.cfi_offset lr, -4
	.cfi_offset r4, -8
	.pad	#24
	sub	sp, #24
	.cfi_def_cfa_offset 32
	movs	r0, #0
.Ltmp159:
	.loc	3 330 26 prologue_end   @ ../MYx/Core/Src/MyDev_Motor.c:330:26
	bl	MyCLI_UnsignedCommandArgument
	add	r1, sp, #20
	.loc	3 330 11 is_stmt 0      @ ../MYx/Core/Src/MyDev_Motor.c:330:11
	strb	r0, [r1]
.Ltmp160:
	.loc	3 331 6 is_stmt 1       @ ../MYx/Core/Src/MyDev_Motor.c:331:6
	ldrb	r0, [r1]
.Ltmp161:
	.loc	3 331 6 is_stmt 0       @ ../MYx/Core/Src/MyDev_Motor.c:331:6
	cmp	r0, #2
	blt	.LBB10_2
	b	.LBB10_1
.LBB10_1:
.Ltmp162:
	.loc	3 333 3 is_stmt 1       @ ../MYx/Core/Src/MyDev_Motor.c:333:3
	ldr	r0, __arm_cp.10_2
	bl	printf
	.loc	3 334 3                 @ ../MYx/Core/Src/MyDev_Motor.c:334:3
	b	.LBB10_3
.Ltmp163:
.LBB10_2:
	.loc	3 0 3 is_stmt 0         @ ../MYx/Core/Src/MyDev_Motor.c:0:3
	movs	r0, #1
	.loc	3 336 20 is_stmt 1      @ ../MYx/Core/Src/MyDev_Motor.c:336:20
	bl	MyCLI_UnsignedCommandArgument
	add	r1, sp, #20
	.loc	3 336 8 is_stmt 0       @ ../MYx/Core/Src/MyDev_Motor.c:336:8
	ldrb	r2, [r1]
	.loc	3 336 2                 @ ../MYx/Core/Src/MyDev_Motor.c:336:2
	lsls	r2, r2, #4
	ldr	r3, __arm_cp.10_0
	adds	r2, r3, r2
	.loc	3 336 18                @ ../MYx/Core/Src/MyDev_Motor.c:336:18
	str	r0, [r2, #12]
	movs	r0, #2
	.loc	3 337 34 is_stmt 1      @ ../MYx/Core/Src/MyDev_Motor.c:337:34
	str	r1, [sp, #16]           @ 4-byte Spill
	str	r3, [sp, #12]           @ 4-byte Spill
	bl	MyCLI_UnsignedCommandArgument
	.loc	3 337 8 is_stmt 0       @ ../MYx/Core/Src/MyDev_Motor.c:337:8
	ldr	r1, [sp, #16]           @ 4-byte Reload
	ldrb	r2, [r1]
	.loc	3 337 2                 @ ../MYx/Core/Src/MyDev_Motor.c:337:2
	lsls	r2, r2, #4
	ldr	r3, [sp, #12]           @ 4-byte Reload
	adds	r2, r3, r2
	.loc	3 337 19                @ ../MYx/Core/Src/MyDev_Motor.c:337:19
	strb	r0, [r2, #9]
	movs	r0, #3
	.loc	3 338 34 is_stmt 1      @ ../MYx/Core/Src/MyDev_Motor.c:338:34
	bl	MyCLI_UnsignedCommandArgument
	.loc	3 338 67 is_stmt 0      @ ../MYx/Core/Src/MyDev_Motor.c:338:67
	adds	r0, r0, #2
	.loc	3 338 8                 @ ../MYx/Core/Src/MyDev_Motor.c:338:8
	ldr	r1, [sp, #16]           @ 4-byte Reload
	ldrb	r2, [r1]
	.loc	3 338 2                 @ ../MYx/Core/Src/MyDev_Motor.c:338:2
	lsls	r2, r2, #4
	ldr	r3, [sp, #12]           @ 4-byte Reload
	adds	r2, r3, r2
	.loc	3 338 18                @ ../MYx/Core/Src/MyDev_Motor.c:338:18
	strb	r0, [r2, #8]
	.loc	3 339 54 is_stmt 1      @ ../MYx/Core/Src/MyDev_Motor.c:339:54
	ldrb	r0, [r1]
	.loc	3 339 58 is_stmt 0      @ ../MYx/Core/Src/MyDev_Motor.c:339:58
	lsls	r2, r0, #4
	adds	r2, r3, r2
	.loc	3 339 68                @ ../MYx/Core/Src/MyDev_Motor.c:339:68
	ldr	r4, [r2, #12]
	.loc	3 339 85                @ ../MYx/Core/Src/MyDev_Motor.c:339:85
	ldrb	r3, [r2, #9]
	.loc	3 339 104               @ ../MYx/Core/Src/MyDev_Motor.c:339:104
	ldrb	r2, [r2, #8]
	.loc	3 339 109               @ ../MYx/Core/Src/MyDev_Motor.c:339:109
	subs	r2, r2, #2
	.loc	3 339 2                 @ ../MYx/Core/Src/MyDev_Motor.c:339:2
	str	r2, [sp]
	ldr	r2, __arm_cp.10_1
	str	r0, [sp, #8]            @ 4-byte Spill
	mov	r0, r2
	ldr	r1, [sp, #8]            @ 4-byte Reload
	mov	r2, r4
	bl	printf
	.loc	3 340 1 is_stmt 1       @ ../MYx/Core/Src/MyDev_Motor.c:340:1
	b	.LBB10_3
.LBB10_3:
	add	sp, #24
	pop	{r4, pc}
.Ltmp164:
	.p2align	2
@ %bb.4:
	.loc	3 0 1 is_stmt 0         @ ../MYx/Core/Src/MyDev_Motor.c:0:1
__arm_cp.10_0:
	.long	STPMT
.Lcpi_end16:
	.size	__arm_cp.10_0, .Lcpi_end16-__arm_cp.10_0
__arm_cp.10_1:
	.long	.L.str.2
.Lcpi_end17:
	.size	__arm_cp.10_1, .Lcpi_end17-__arm_cp.10_1
__arm_cp.10_2:
	.long	.L.str.1
.Lcpi_end18:
	.size	__arm_cp.10_2, .Lcpi_end18-__arm_cp.10_2
.Lfunc_end10:
	.size	MyMoto_CLI_STPMTSet, .Lfunc_end10-MyMoto_CLI_STPMTSet
	.cfi_endproc
	.cantunwind
	.fnend
                                        @ -- End function
	.type	STPMT,%object           @ @STPMT
	.section	.bss.STPMT,"aw",%nobits
	.p2align	2
STPMT:
	.zero	32
	.size	STPMT, 32

	.type	.L.str,%object          @ @.str
	.section	.rodata.str1.1,"aMS",%progbits,1
.L.str:
	.asciz	"!!!!! Emergency Stop !!!!! \r\n"
	.size	.L.str, 30

	.type	.L.str.1,%object        @ @.str.1
.L.str.1:
	.asciz	"!!!!! STPMT_No Error !!!!! \r\n"
	.size	.L.str.1, 30

	.type	.L.str.2,%object        @ @.str.2
.L.str.2:
	.asciz	"STP No.%d Angle:%d Direct:%d Speed:%d \r\n"
	.size	.L.str.2, 41

	.section	".note.GNU-stack","",%progbits
	.eabi_attribute	30, 6	@ Tag_ABI_optimization_goals
	.ARM_attribute	16, 1	@ Tag_AV_eba