	.text
	.syntax unified
	.eabi_attribute	67, "2.09"	@ Tag_conformance
	.cpu	cortex-m23
	.eabi_attribute	6, 16	@ Tag_CPU_arch
	.eabi_attribute	7, 77	@ Tag_CPU_arch_profile
	.eabi_attribute	8, 0	@ Tag_ARM_ISA_use
	.eabi_attribute	9, 3	@ Tag_THUMB_ISA_use
	.eabi_attribute	34, 0	@ Tag_CPU_unaligned_access
	.eabi_attribute	17, 1	@ Tag_ABI_PCS_GOT_use
	.eabi_attribute	20, 2	@ Tag_ABI_FP_denormal
	.eabi_attribute	21, 0	@ Tag_ABI_FP_exceptions
	.eabi_attribute	23, 1	@ Tag_ABI_FP_number_model
	.eabi_attribute	24, 1	@ Tag_ABI_align_needed
	.eabi_attribute	25, 1	@ Tag_ABI_align_preserved
	.eabi_attribute	38, 1	@ Tag_ABI_FP_16bit_format
	.eabi_attribute	18, 2	@ Tag_ABI_PCS_wchar_t
	.eabi_attribute	26, 1	@ Tag_ABI_enum_size
	.eabi_attribute	14, 0	@ Tag_ABI_PCS_R9_use
	.file	"MyDev_LED.c"
	.file	1 "C:\\Work\\Keil WorkSpace\\Furbo\\Keil" "../MYx/Core/Inc\\MyDev_LED.h"
	.file	2 "C:\\Work\\Keil WorkSpace\\Furbo\\Keil" "../MYx/Core/Inc/MyMCU_GPIO.h"
	.file	3 "C:\\" "Keil_v5\\ARM\\ARMCLANG\\Bin\\..\\include\\stdint.h"
	.hidden	MyLED_Init              @ -- Begin function MyLED_Init
	.globl	MyLED_Init
	.p2align	1
	.type	MyLED_Init,%function
	.code	16                      @ @MyLED_Init
	.thumb_func
MyLED_Init:
.Lfunc_begin0:
	.file	4 "C:\\Work\\Keil WorkSpace\\Furbo\\Keil" "../MYx/Core/Src/MyDev_LED.c"
	.loc	4 11 0                  @ ../MYx/Core/Src/MyDev_LED.c:11:0
	.fnstart
	.cfi_sections .debug_frame
	.cfi_startproc
@ %bb.0:
	.loc	4 15 1 prologue_end     @ ../MYx/Core/Src/MyDev_LED.c:15:1
	bx	lr
.Ltmp0:
.Lfunc_end0:
	.size	MyLED_Init, .Lfunc_end0-MyLED_Init
	.cfi_endproc
	.cantunwind
	.fnend
                                        @ -- End function
	.hidden	MyLED_Off               @ -- Begin function MyLED_Off
	.globl	MyLED_Off
	.p2align	1
	.type	MyLED_Off,%function
	.code	16                      @ @MyLED_Off
	.thumb_func
MyLED_Off:
.Lfunc_begin1:
	.loc	4 18 0                  @ ../MYx/Core/Src/MyDev_LED.c:18:0
	.fnstart
	.cfi_startproc
@ %bb.0:
	.loc	4 22 1 prologue_end     @ ../MYx/Core/Src/MyDev_LED.c:22:1
	bx	lr
.Ltmp1:
.Lfunc_end1:
	.size	MyLED_Off, .Lfunc_end1-MyLED_Off
	.cfi_endproc
	.cantunwind
	.fnend
                                        @ -- End function
	.hidden	MyLED_OnOff             @ -- Begin function MyLED_OnOff
	.globl	MyLED_OnOff
	.p2align	2
	.type	MyLED_OnOff,%function
	.code	16                      @ @MyLED_OnOff
	.thumb_func
MyLED_OnOff:
.Lfunc_begin2:
	.loc	4 24 0                  @ ../MYx/Core/Src/MyDev_LED.c:24:0
	.fnstart
	.cfi_startproc
@ %bb.0:
	.save	{r4, lr}
	push	{r4, lr}
	.cfi_def_cfa_offset 8
	.cfi_offset lr, -4
	.cfi_offset r4, -8
	.pad	#16
	sub	sp, #16
	.cfi_def_cfa_offset 24
	mov	r2, r1
	mov	r3, r0
	add	r4, sp, #12
	strb	r0, [r4]
	add	r0, sp, #8
	strb	r1, [r0]
.Ltmp2:
	.loc	4 25 5 prologue_end     @ ../MYx/Core/Src/MyDev_LED.c:25:5
	ldrb	r0, [r0]
.Ltmp3:
	.loc	4 25 5 is_stmt 0        @ ../MYx/Core/Src/MyDev_LED.c:25:5
	cmp	r0, #1
	bne	.LBB2_14
	b	.LBB2_1
.LBB2_1:
	.loc	4 0 5                   @ ../MYx/Core/Src/MyDev_LED.c:0:5
	add	r0, sp, #12
.Ltmp4:
	.loc	4 26 11 is_stmt 1       @ ../MYx/Core/Src/MyDev_LED.c:26:11
	ldrb	r0, [r0]
	.loc	4 26 3 is_stmt 0        @ ../MYx/Core/Src/MyDev_LED.c:26:3
	cmp	r0, #7
	str	r0, [sp, #4]            @ 4-byte Spill
	bhi	.LBB2_12
@ %bb.2:
	.loc	4 0 3                   @ ../MYx/Core/Src/MyDev_LED.c:0:3
	ldr	r0, [sp, #4]            @ 4-byte Reload
	lsls	r1, r0, #2
	adr	r2, .LJTI2_0
	adds	r1, r2, r1
	mov	pc, r1
@ %bb.3:
	.p2align	2
.LJTI2_0:
	b.w	.LBB2_4
	b.w	.LBB2_5
	b.w	.LBB2_6
	b.w	.LBB2_8
	b.w	.LBB2_7
	b.w	.LBB2_9
	b.w	.LBB2_10
	b.w	.LBB2_11
.LBB2_4:
.Ltmp5:
	.loc	4 32 4 is_stmt 1        @ ../MYx/Core/Src/MyDev_LED.c:32:4
	b	.LBB2_13
.LBB2_5:
	.loc	4 38 4                  @ ../MYx/Core/Src/MyDev_LED.c:38:4
	b	.LBB2_13
.LBB2_6:
	.loc	4 44 4                  @ ../MYx/Core/Src/MyDev_LED.c:44:4
	b	.LBB2_13
.LBB2_7:
	.loc	4 50 4                  @ ../MYx/Core/Src/MyDev_LED.c:50:4
	b	.LBB2_13
.LBB2_8:
	.loc	4 56 4                  @ ../MYx/Core/Src/MyDev_LED.c:56:4
	b	.LBB2_13
.LBB2_9:
	.loc	4 62 4                  @ ../MYx/Core/Src/MyDev_LED.c:62:4
	b	.LBB2_13
.LBB2_10:
	.loc	4 68 4                  @ ../MYx/Core/Src/MyDev_LED.c:68:4
	b	.LBB2_13
.LBB2_11:
	b	.LBB2_12
.LBB2_12:
	.loc	4 72 4                  @ ../MYx/Core/Src/MyDev_LED.c:72:4
	bl	MyLED_Off
	.loc	4 73 4                  @ ../MYx/Core/Src/MyDev_LED.c:73:4
	b	.LBB2_13
.LBB2_13:
	.loc	4 74 3                  @ ../MYx/Core/Src/MyDev_LED.c:74:3
	b	.LBB2_15
.Ltmp6:
.LBB2_14:
	.loc	4 76 3                  @ ../MYx/Core/Src/MyDev_LED.c:76:3
	bl	MyLED_Off
	b	.LBB2_15
.Ltmp7:
.LBB2_15:
	.loc	4 77 1                  @ ../MYx/Core/Src/MyDev_LED.c:77:1
	add	sp, #16
	pop	{r4, pc}
.Ltmp8:
.Lfunc_end2:
	.size	MyLED_OnOff, .Lfunc_end2-MyLED_OnOff
	.cfi_endproc
	.cantunwind
	.fnend
                                        @ -- End function
	.hidden	MyLED_Green             @ -- Begin function MyLED_Green
	.globl	MyLED_Green
	.p2align	1
	.type	MyLED_Green,%function
	.code	16                      @ @MyLED_Green
	.thumb_func
MyLED_Green:
.Lfunc_begin3:
	.loc	4 80 0                  @ ../MYx/Core/Src/MyDev_LED.c:80:0
	.fnstart
	.cfi_startproc
@ %bb.0:
	.save	{r7, lr}
	push	{r7, lr}
	.cfi_def_cfa_offset 8
	.cfi_offset lr, -4
	.cfi_offset r7, -8
	.pad	#8
	sub	sp, #8
	.cfi_def_cfa_offset 16
	mov	r1, r0
	add	r2, sp, #4
	strb	r0, [r2]
.Ltmp9:
	.loc	4 81 39 prologue_end    @ ../MYx/Core/Src/MyDev_LED.c:81:39
	ldrb	r2, [r2]
	movs	r0, #0
	movs	r3, #5
	.loc	4 81 2 is_stmt 0        @ ../MYx/Core/Src/MyDev_LED.c:81:2
	str	r1, [sp]                @ 4-byte Spill
	mov	r1, r3
	bl	MyGPIO_WritePin
	.loc	4 82 1 is_stmt 1        @ ../MYx/Core/Src/MyDev_LED.c:82:1
	add	sp, #8
	pop	{r7, pc}
.Ltmp10:
.Lfunc_end3:
	.size	MyLED_Green, .Lfunc_end3-MyLED_Green
	.cfi_endproc
	.cantunwind
	.fnend
                                        @ -- End function
	.hidden	MyLED_CLI_On            @ -- Begin function MyLED_CLI_On
	.globl	MyLED_CLI_On
	.p2align	1
	.type	MyLED_CLI_On,%function
	.code	16                      @ @MyLED_CLI_On
	.thumb_func
MyLED_CLI_On:
.Lfunc_begin4:
	.loc	4 89 0                  @ ../MYx/Core/Src/MyDev_LED.c:89:0
	.fnstart
	.cfi_startproc
@ %bb.0:
	.save	{r7, lr}
	push	{r7, lr}
	.cfi_def_cfa_offset 8
	.cfi_offset lr, -4
	.cfi_offset r7, -8
	.pad	#8
	sub	sp, #8
	.cfi_def_cfa_offset 16
	movs	r0, #0
.Ltmp11:
	.loc	4 92 20 prologue_end    @ ../MYx/Core/Src/MyDev_LED.c:92:20
	bl	MyCLI_UnsignedCommandArgument
	add	r1, sp, #4
	.loc	4 92 8 is_stmt 0        @ ../MYx/Core/Src/MyDev_LED.c:92:8
	strb	r0, [r1]
	.loc	4 93 14 is_stmt 1       @ ../MYx/Core/Src/MyDev_LED.c:93:14
	ldrb	r0, [r1]
	movs	r1, #1
	.loc	4 93 2 is_stmt 0        @ ../MYx/Core/Src/MyDev_LED.c:93:2
	bl	MyLED_OnOff
	.loc	4 94 1 is_stmt 1        @ ../MYx/Core/Src/MyDev_LED.c:94:1
	add	sp, #8
	pop	{r7, pc}
.Ltmp12:
.Lfunc_end4:
	.size	MyLED_CLI_On, .Lfunc_end4-MyLED_CLI_On
	.cfi_endproc
	.cantunwind
	.fnend
                                        @ -- End function
	.hidden	MyLED_CLI_SetBrightness @ -- Begin function MyLED_CLI_SetBrightness
	.globl	MyLED_CLI_SetBrightness
	.p2align	1
	.type	MyLED_CLI_SetBrightness,%function
	.code	16                      @ @MyLED_CLI_SetBrightness
	.thumb_func
MyLED_CLI_SetBrightness:
.Lfunc_begin5:
	.loc	4 97 0                  @ ../MYx/Core/Src/MyDev_LED.c:97:0
	.fnstart
	.cfi_startproc
@ %bb.0:
	.save	{r7, lr}
	push	{r7, lr}
	.cfi_def_cfa_offset 8
	.cfi_offset lr, -4
	.cfi_offset r7, -8
	.pad	#8
	sub	sp, #8
	.cfi_def_cfa_offset 16
	movs	r0, #0
.Ltmp13:
	.loc	4 99 25 prologue_end    @ ../MYx/Core/Src/MyDev_LED.c:99:25
	bl	MyCLI_UnsignedCommandArgument
	add	r1, sp, #4
	.loc	4 99 13 is_stmt 0       @ ../MYx/Core/Src/MyDev_LED.c:99:13
	strh	r0, [r1]
	.loc	4 100 27 is_stmt 1      @ ../MYx/Core/Src/MyDev_LED.c:100:27
	ldrh	r0, [r1]
	.loc	4 100 2 is_stmt 0       @ ../MYx/Core/Src/MyDev_LED.c:100:2
	bl	MyLED_KTD2027_SetCurrent
	.loc	4 101 1 is_stmt 1       @ ../MYx/Core/Src/MyDev_LED.c:101:1
	add	sp, #8
	pop	{r7, pc}
.Ltmp14:
.Lfunc_end5:
	.size	MyLED_CLI_SetBrightness, .Lfunc_end5-MyLED_CLI_SetBrightness
	.cfi_endproc
	.cantunwind
	.fnend
                                        @ -- End function
	.hidden	MyLED_CLI_Test          @ -- Begin function MyLED_CLI_Test
	.globl	MyLED_CLI_Test
	.p2align	1
	.type	MyLED_CLI_Test,%function
	.code	16                      @ @MyLED_CLI_Test
	.thumb_func
MyLED_CLI_Test:
.Lfunc_begin6:
	.loc	4 104 0                 @ ../MYx/Core/Src/MyDev_LED.c:104:0
	.fnstart
	.cfi_startproc
@ %bb.0:
	.loc	4 128 1 prologue_end    @ ../MYx/Core/Src/MyDev_LED.c:128:1
	bx	lr
.Ltmp15:
.Lfunc_end6:
	.size	MyLED_CLI_Test, .Lfunc_end6-MyLED_CLI_Test
	.cfi_endproc
	.cantunwind
	.fnend
                                        @ -- End function
	.section	".note.GNU-stack","",%progbits
	.eabi_attribute	30, 6	@ Tag_ABI_optimization_goals
	.ARM_attribute	16, 1	@ Tag_AV_eba