	.text
	.syntax unified
	.eabi_attribute	67, "2.09"	@ Tag_conformance
	.cpu	cortex-m23
	.eabi_attribute	6, 16	@ Tag_CPU_arch
	.eabi_attribute	7, 77	@ Tag_CPU_arch_profile
	.eabi_attribute	8, 0	@ Tag_ARM_ISA_use
	.eabi_attribute	9, 3	@ Tag_THUMB_ISA_use
	.eabi_attribute	34, 0	@ Tag_CPU_unaligned_access
	.eabi_attribute	17, 1	@ Tag_ABI_PCS_GOT_use
	.eabi_attribute	20, 2	@ Tag_ABI_FP_denormal
	.eabi_attribute	21, 0	@ Tag_ABI_FP_exceptions
	.eabi_attribute	23, 1	@ Tag_ABI_FP_number_model
	.eabi_attribute	24, 1	@ Tag_ABI_align_needed
	.eabi_attribute	25, 1	@ Tag_ABI_align_preserved
	.eabi_attribute	38, 1	@ Tag_ABI_FP_16bit_format
	.eabi_attribute	18, 2	@ Tag_ABI_PCS_wchar_t
	.eabi_attribute	26, 1	@ Tag_ABI_enum_size
	.eabi_attribute	14, 0	@ Tag_ABI_PCS_R9_use
	.file	"MyFunc_CLI.c"
	.file	1 "C:\\Work\\Keil WorkSpace\\Furbo\\Keil" "../MYx/Src/MyFunc_CLI.c"
	.file	2 "C:\\" "Keil_v5\\ARM\\ARMCLANG\\Bin\\..\\include\\stdint.h"
	.file	3 "C:\\Work\\Keil WorkSpace\\Furbo\\Keil" "../MYx/Inc/MyFunc_CLI.h"
	.file	4 "C:\\Work\\Keil WorkSpace\\Furbo\\Keil" "../MYx/Inc/MyMCU_UART.h"
	.hidden	MyCLI_tokenLength       @ -- Begin function MyCLI_tokenLength
	.globl	MyCLI_tokenLength
	.p2align	2
	.type	MyCLI_tokenLength,%function
	.code	16                      @ @MyCLI_tokenLength
	.thumb_func
MyCLI_tokenLength:
.Lfunc_begin0:
	.loc	1 63 0                  @ ../MYx/Src/MyFunc_CLI.c:63:0
	.fnstart
	.cfi_sections .debug_frame
	.cfi_startproc
@ %bb.0:
	.pad	#4
	sub	sp, #4
	.cfi_def_cfa_offset 4
	mov	r1, r0
	mov	r2, sp
	strb	r0, [r2]
.Ltmp0:
	.loc	1 64 37 prologue_end    @ ../MYx/Src/MyFunc_CLI.c:64:37
	ldrb	r0, [r2]
	.loc	1 64 11 is_stmt 0       @ ../MYx/Src/MyFunc_CLI.c:64:11
	ldr	r2, __arm_cp.0_0
	adds	r0, r2, r0
	.loc	1 65 13 is_stmt 1       @ ../MYx/Src/MyFunc_CLI.c:65:13
	mov	r2, r0
	adds	r2, #65
	.loc	1 64 11                 @ ../MYx/Src/MyFunc_CLI.c:64:11
	ldrb	r2, [r2, #1]
	movs	r3, #65
	.loc	1 65 13                 @ ../MYx/Src/MyFunc_CLI.c:65:13
	ldrb	r0, [r0, r3]
	.loc	1 65 11 is_stmt 0       @ ../MYx/Src/MyFunc_CLI.c:65:11
	subs	r0, r2, r0
	.loc	1 64 3 is_stmt 1        @ ../MYx/Src/MyFunc_CLI.c:64:3
	uxtb	r0, r0
	add	sp, #4
	bx	lr
.Ltmp1:
	.p2align	2
@ %bb.1:
	.loc	1 0 3 is_stmt 0         @ ../MYx/Src/MyFunc_CLI.c:0:3
__arm_cp.0_0:
	.long	commandState
.Lcpi_end0:
	.size	__arm_cp.0_0, .Lcpi_end0-__arm_cp.0_0
.Lfunc_end0:
	.size	MyCLI_tokenLength, .Lfunc_end0-MyCLI_tokenLength
	.cfi_endproc
	.cantunwind
	.fnend
                                        @ -- End function
	.hidden	MyCLI_tokenPointer      @ -- Begin function MyCLI_tokenPointer
	.globl	MyCLI_tokenPointer
	.p2align	2
	.type	MyCLI_tokenPointer,%function
	.code	16                      @ @MyCLI_tokenPointer
	.thumb_func
MyCLI_tokenPointer:
.Lfunc_begin1:
	.loc	1 69 0 is_stmt 1        @ ../MYx/Src/MyFunc_CLI.c:69:0
	.fnstart
	.cfi_startproc
@ %bb.0:
	.pad	#4
	sub	sp, #4
	.cfi_def_cfa_offset 4
	mov	r1, r0
	mov	r2, sp
	strb	r0, [r2]
.Ltmp2:
	.loc	1 70 58 prologue_end    @ ../MYx/Src/MyFunc_CLI.c:70:58
	ldrb	r0, [r2]
	sxtb	r0, r0
	.loc	1 70 32 is_stmt 0       @ ../MYx/Src/MyFunc_CLI.c:70:32
	ldr	r2, __arm_cp.1_0
	adds	r0, r2, r0
	movs	r3, #65
	ldrb	r0, [r0, r3]
	.loc	1 70 30                 @ ../MYx/Src/MyFunc_CLI.c:70:30
	adds	r0, r2, r0
	adds	r0, r0, #1
	.loc	1 70 3                  @ ../MYx/Src/MyFunc_CLI.c:70:3
	add	sp, #4
	bx	lr
.Ltmp3:
	.p2align	2
@ %bb.1:
	.loc	1 0 3                   @ ../MYx/Src/MyFunc_CLI.c:0:3
__arm_cp.1_0:
	.long	commandState
.Lcpi_end1:
	.size	__arm_cp.1_0, .Lcpi_end1-__arm_cp.1_0
.Lfunc_end1:
	.size	MyCLI_tokenPointer, .Lfunc_end1-MyCLI_tokenPointer
	.cfi_endproc
	.cantunwind
	.fnend
                                        @ -- End function
	.hidden	MyCLI_CommandErrorHandler @ -- Begin function MyCLI_CommandErrorHandler
	.globl	MyCLI_CommandErrorHandler
	.p2align	2
	.type	MyCLI_CommandErrorHandler,%function
	.code	16                      @ @MyCLI_CommandErrorHandler
	.thumb_func
MyCLI_CommandErrorHandler:
.Lfunc_begin2:
	.loc	1 86 0 is_stmt 1        @ ../MYx/Src/MyFunc_CLI.c:86:0
	.fnstart
	.cfi_startproc
@ %bb.0:
	.save	{r7, lr}
	push	{r7, lr}
	.cfi_def_cfa_offset 8
	.cfi_offset lr, -4
	.cfi_offset r7, -8
	.pad	#8
	sub	sp, #8
	.cfi_def_cfa_offset 16
	mov	r1, r0
	add	r2, sp, #4
	strb	r0, [r2]
.Ltmp4:
	.loc	1 87 38 prologue_end    @ ../MYx/Src/MyFunc_CLI.c:87:38
	ldrb	r0, [r2]
	.loc	1 87 20 is_stmt 0       @ ../MYx/Src/MyFunc_CLI.c:87:20
	lsls	r0, r0, #2
	ldr	r2, __arm_cp.2_0
	ldr	r0, [r2, r0]
	.loc	1 87 2                  @ ../MYx/Src/MyFunc_CLI.c:87:2
	str	r1, [sp]                @ 4-byte Spill
	bl	My_printf
	.loc	1 89 1 is_stmt 1        @ ../MYx/Src/MyFunc_CLI.c:89:1
	add	sp, #8
	pop	{r7, pc}
.Ltmp5:
	.p2align	2
@ %bb.1:
	.loc	1 0 1 is_stmt 0         @ ../MYx/Src/MyFunc_CLI.c:0:1
__arm_cp.2_0:
	.long	CommandErrorNames
.Lcpi_end2:
	.size	__arm_cp.2_0, .Lcpi_end2-__arm_cp.2_0
.Lfunc_end2:
	.size	MyCLI_CommandErrorHandler, .Lfunc_end2-MyCLI_CommandErrorHandler
	.cfi_endproc
	.cantunwind
	.fnend
                                        @ -- End function
	.hidden	MyCLI_CommandReaderInit @ -- Begin function MyCLI_CommandReaderInit
	.globl	MyCLI_CommandReaderInit
	.p2align	2
	.type	MyCLI_CommandReaderInit,%function
	.code	16                      @ @MyCLI_CommandReaderInit
	.thumb_func
MyCLI_CommandReaderInit:
.Lfunc_begin3:
	.loc	1 92 0 is_stmt 1        @ ../MYx/Src/MyFunc_CLI.c:92:0
	.fnstart
	.cfi_startproc
@ %bb.0:
	.loc	1 93 22 prologue_end    @ ../MYx/Src/MyFunc_CLI.c:93:22
	ldr	r0, __arm_cp.3_0
	movs	r1, #0
	strb	r1, [r0]
	movs	r2, #84
	.loc	1 94 22                 @ ../MYx/Src/MyFunc_CLI.c:94:22
	strh	r1, [r0, r2]
	movs	r2, #65
	.loc	1 95 32                 @ ../MYx/Src/MyFunc_CLI.c:95:32
	strb	r1, [r0, r2]
	movs	r2, #83
	.loc	1 96 27                 @ ../MYx/Src/MyFunc_CLI.c:96:27
	strb	r1, [r0, r2]
	movs	r2, #86
	.loc	1 97 22                 @ ../MYx/Src/MyFunc_CLI.c:97:22
	strb	r1, [r0, r2]
	movs	r1, #87
	movs	r2, #255
	.loc	1 98 30                 @ ../MYx/Src/MyFunc_CLI.c:98:30
	strb	r2, [r0, r1]
	.loc	1 99 1                  @ ../MYx/Src/MyFunc_CLI.c:99:1
	bx	lr
.Ltmp6:
	.p2align	2
@ %bb.1:
	.loc	1 0 1 is_stmt 0         @ ../MYx/Src/MyFunc_CLI.c:0:1
__arm_cp.3_0:
	.long	commandState
.Lcpi_end3:
	.size	__arm_cp.3_0, .Lcpi_end3-__arm_cp.3_0
.Lfunc_end3:
	.size	MyCLI_CommandReaderInit, .Lfunc_end3-MyCLI_CommandReaderInit
	.cfi_endproc
	.cantunwind
	.fnend
                                        @ -- End function
	.hidden	MyCLI_UnsignedCommandArgument @ -- Begin function MyCLI_UnsignedCommandArgument
	.globl	MyCLI_UnsignedCommandArgument
	.p2align	1
	.type	MyCLI_UnsignedCommandArgument,%function
	.code	16                      @ @MyCLI_UnsignedCommandArgument
	.thumb_func
MyCLI_UnsignedCommandArgument:
.Lfunc_begin4:
	.loc	1 165 0 is_stmt 1       @ ../MYx/Src/MyFunc_CLI.c:165:0
	.fnstart
	.cfi_startproc
@ %bb.0:
	.save	{r7, lr}
	push	{r7, lr}
	.cfi_def_cfa_offset 8
	.cfi_offset lr, -4
	.cfi_offset r7, -8
	.pad	#8
	sub	sp, #8
	.cfi_def_cfa_offset 16
	mov	r1, r0
	add	r2, sp, #4
	strb	r0, [r2]
.Ltmp7:
	.loc	1 166 36 prologue_end   @ ../MYx/Src/MyFunc_CLI.c:166:36
	ldrb	r0, [r2]
	movs	r2, #0
	.loc	1 166 10 is_stmt 0      @ ../MYx/Src/MyFunc_CLI.c:166:10
	str	r1, [sp]                @ 4-byte Spill
	mov	r1, r2
	bl	MyCLI_StringToUnsignedInt
	.loc	1 166 3                 @ ../MYx/Src/MyFunc_CLI.c:166:3
	add	sp, #8
	pop	{r7, pc}
.Ltmp8:
.Lfunc_end4:
	.size	MyCLI_UnsignedCommandArgument, .Lfunc_end4-MyCLI_UnsignedCommandArgument
	.cfi_endproc
	.cantunwind
	.fnend
                                        @ -- End function
	.p2align	2               @ -- Begin function MyCLI_StringToUnsignedInt
	.type	MyCLI_StringToUnsignedInt,%function
	.code	16                      @ @MyCLI_StringToUnsignedInt
	.thumb_func
MyCLI_StringToUnsignedInt:
.Lfunc_begin5:
	.loc	1 129 0 is_stmt 1       @ ../MYx/Src/MyFunc_CLI.c:129:0
	.fnstart
	.cfi_startproc
@ %bb.0:
	.save	{r4, r5, r7, lr}
	push	{r4, r5, r7, lr}
	.cfi_def_cfa_offset 16
	.cfi_offset lr, -4
	.cfi_offset r7, -8
	.cfi_offset r5, -12
	.cfi_offset r4, -16
	.pad	#56
	sub	sp, #56
	.cfi_def_cfa_offset 72
	mov	r2, r1
	mov	r3, r0
	add	r4, sp, #48
	strb	r0, [r4]
	add	r0, sp, #44
	strb	r1, [r0]
.Ltmp9:
	.loc	1 130 22 prologue_end   @ ../MYx/Src/MyFunc_CLI.c:130:22
	ldr	r0, [sp, #48]
	.loc	1 130 44 is_stmt 0      @ ../MYx/Src/MyFunc_CLI.c:130:44
	ldr	r1, __arm_cp.5_0
	movs	r4, #88
	.loc	1 130 31                @ ../MYx/Src/MyFunc_CLI.c:130:31
	ldrb	r4, [r1, r4]
	.loc	1 130 29                @ ../MYx/Src/MyFunc_CLI.c:130:29
	adds	r0, r0, r4
	add	r4, sp, #40
	.loc	1 130 11                @ ../MYx/Src/MyFunc_CLI.c:130:11
	strb	r0, [r4]
	.loc	1 131 69 is_stmt 1      @ ../MYx/Src/MyFunc_CLI.c:131:69
	ldrb	r0, [r4]
	.loc	1 131 43 is_stmt 0      @ ../MYx/Src/MyFunc_CLI.c:131:43
	adds	r0, r1, r0
	movs	r5, #65
	ldrb	r0, [r0, r5]
	.loc	1 131 41                @ ../MYx/Src/MyFunc_CLI.c:131:41
	adds	r0, r1, r0
	adds	r0, r0, #1
	.loc	1 131 12                @ ../MYx/Src/MyFunc_CLI.c:131:12
	str	r0, [sp, #36]
	.loc	1 132 38 is_stmt 1      @ ../MYx/Src/MyFunc_CLI.c:132:38
	ldrb	r0, [r4]
	.loc	1 132 20 is_stmt 0      @ ../MYx/Src/MyFunc_CLI.c:132:20
	str	r2, [sp, #8]            @ 4-byte Spill
	str	r3, [sp, #4]            @ 4-byte Spill
	bl	MyCLI_tokenLength
	add	r1, sp, #32
	.loc	1 132 11                @ ../MYx/Src/MyFunc_CLI.c:132:11
	strb	r0, [r1]
	movs	r0, #0
	.loc	1 133 12 is_stmt 1      @ ../MYx/Src/MyFunc_CLI.c:133:12
	str	r0, [sp, #28]
	add	r1, sp, #24
	movs	r2, #10
	.loc	1 134 11                @ ../MYx/Src/MyFunc_CLI.c:134:11
	strb	r2, [r1]
	add	r1, sp, #20
.Ltmp10:
	.loc	1 136 10                @ ../MYx/Src/MyFunc_CLI.c:136:10
	strb	r0, [r1]
	.loc	1 136 8 is_stmt 0       @ ../MYx/Src/MyFunc_CLI.c:136:8
	b	.LBB5_1
.LBB5_1:                                @ =>This Inner Loop Header: Depth=1
	.loc	1 0 8                   @ ../MYx/Src/MyFunc_CLI.c:0:8
	add	r0, sp, #20
.Ltmp11:
	.loc	1 136 15                @ ../MYx/Src/MyFunc_CLI.c:136:15
	ldrb	r0, [r0]
	add	r1, sp, #32
	.loc	1 136 19                @ ../MYx/Src/MyFunc_CLI.c:136:19
	ldrb	r1, [r1]
.Ltmp12:
	.loc	1 136 3                 @ ../MYx/Src/MyFunc_CLI.c:136:3
	cmp	r0, r1
	bge	.LBB5_17
	b	.LBB5_2
.LBB5_2:                                @   in Loop: Header=BB5_1 Depth=1
.Ltmp13:
	.loc	1 138 20 is_stmt 1      @ ../MYx/Src/MyFunc_CLI.c:138:20
	ldr	r0, [sp, #36]
	add	r1, sp, #20
	.loc	1 138 27 is_stmt 0      @ ../MYx/Src/MyFunc_CLI.c:138:27
	ldrb	r1, [r1]
	.loc	1 138 20                @ ../MYx/Src/MyFunc_CLI.c:138:20
	ldrb	r0, [r0, r1]
	add	r1, sp, #16
	.loc	1 138 13                @ ../MYx/Src/MyFunc_CLI.c:138:13
	strb	r0, [r1]
	add	r0, sp, #44
.Ltmp14:
	.loc	1 139 9 is_stmt 1       @ ../MYx/Src/MyFunc_CLI.c:139:9
	ldrb	r0, [r0]
	.loc	1 139 28 is_stmt 0      @ ../MYx/Src/MyFunc_CLI.c:139:28
	cmp	r0, #0
	beq	.LBB5_6
	b	.LBB5_3
.LBB5_3:                                @   in Loop: Header=BB5_1 Depth=1
	.loc	1 0 28                  @ ../MYx/Src/MyFunc_CLI.c:0:28
	add	r0, sp, #20
	.loc	1 139 31                @ ../MYx/Src/MyFunc_CLI.c:139:31
	ldrb	r0, [r0]
	.loc	1 139 38                @ ../MYx/Src/MyFunc_CLI.c:139:38
	cmp	r0, #0
	bne	.LBB5_6
	b	.LBB5_4
.LBB5_4:                                @   in Loop: Header=BB5_1 Depth=1
	.loc	1 0 38                  @ ../MYx/Src/MyFunc_CLI.c:0:38
	add	r0, sp, #16
	.loc	1 139 41                @ ../MYx/Src/MyFunc_CLI.c:139:41
	ldrb	r0, [r0]
.Ltmp15:
	.loc	1 139 9                 @ ../MYx/Src/MyFunc_CLI.c:139:9
	cmp	r0, #45
	bne	.LBB5_6
	b	.LBB5_5
.LBB5_5:                                @   in Loop: Header=BB5_1 Depth=1
.Ltmp16:
	.loc	1 142 5 is_stmt 1       @ ../MYx/Src/MyFunc_CLI.c:142:5
	b	.LBB5_15
.Ltmp17:
.LBB5_6:                                @   in Loop: Header=BB5_1 Depth=1
	.loc	1 0 5 is_stmt 0         @ ../MYx/Src/MyFunc_CLI.c:0:5
	add	r0, sp, #16
.Ltmp18:
	.loc	1 143 13 is_stmt 1      @ ../MYx/Src/MyFunc_CLI.c:143:13
	ldrb	r0, [r0]
	.loc	1 143 25 is_stmt 0      @ ../MYx/Src/MyFunc_CLI.c:143:25
	cmp	r0, #120
	beq	.LBB5_8
	b	.LBB5_7
.LBB5_7:                                @   in Loop: Header=BB5_1 Depth=1
	.loc	1 0 25                  @ ../MYx/Src/MyFunc_CLI.c:0:25
	add	r0, sp, #16
	.loc	1 143 28                @ ../MYx/Src/MyFunc_CLI.c:143:28
	ldrb	r0, [r0]
	.loc	1 143 41                @ ../MYx/Src/MyFunc_CLI.c:143:41
	cmp	r0, #88
	bne	.LBB5_10
	b	.LBB5_8
.LBB5_8:                                @   in Loop: Header=BB5_1 Depth=1
	.loc	1 143 44                @ ../MYx/Src/MyFunc_CLI.c:143:44
	ldr	r0, [sp, #28]
.Ltmp19:
	.loc	1 143 12                @ ../MYx/Src/MyFunc_CLI.c:143:12
	cmp	r0, #0
	bne	.LBB5_10
	b	.LBB5_9
.LBB5_9:                                @   in Loop: Header=BB5_1 Depth=1
	.loc	1 0 12                  @ ../MYx/Src/MyFunc_CLI.c:0:12
	add	r0, sp, #24
	movs	r1, #16
.Ltmp20:
	.loc	1 145 12 is_stmt 1      @ ../MYx/Src/MyFunc_CLI.c:145:12
	strb	r1, [r0]
	.loc	1 146 5                 @ ../MYx/Src/MyFunc_CLI.c:146:5
	b	.LBB5_14
.Ltmp21:
.LBB5_10:                               @   in Loop: Header=BB5_1 Depth=1
	.loc	1 0 5 is_stmt 0         @ ../MYx/Src/MyFunc_CLI.c:0:5
	add	r0, sp, #16
.Ltmp22:
	.loc	1 149 35 is_stmt 1      @ ../MYx/Src/MyFunc_CLI.c:149:35
	ldrb	r0, [r0]
	.loc	1 149 23 is_stmt 0      @ ../MYx/Src/MyFunc_CLI.c:149:23
	bl	My_HexToInt
	add	r1, sp, #12
	.loc	1 149 15                @ ../MYx/Src/MyFunc_CLI.c:149:15
	strb	r0, [r1]
.Ltmp23:
	.loc	1 150 11 is_stmt 1      @ ../MYx/Src/MyFunc_CLI.c:150:11
	ldrb	r0, [r1]
	add	r1, sp, #24
	.loc	1 150 19 is_stmt 0      @ ../MYx/Src/MyFunc_CLI.c:150:19
	ldrb	r1, [r1]
.Ltmp24:
	.loc	1 150 11                @ ../MYx/Src/MyFunc_CLI.c:150:11
	cmp	r0, r1
	bge	.LBB5_12
	b	.LBB5_11
.LBB5_11:                               @   in Loop: Header=BB5_1 Depth=1
.Ltmp25:
	.loc	1 152 18 is_stmt 1      @ ../MYx/Src/MyFunc_CLI.c:152:18
	ldr	r0, [sp, #28]
	add	r1, sp, #24
	.loc	1 152 27 is_stmt 0      @ ../MYx/Src/MyFunc_CLI.c:152:27
	ldrb	r1, [r1]
	.loc	1 152 25                @ ../MYx/Src/MyFunc_CLI.c:152:25
	muls	r1, r0, r1
	add	r0, sp, #12
	.loc	1 152 34                @ ../MYx/Src/MyFunc_CLI.c:152:34
	ldrb	r0, [r0]
	.loc	1 152 32                @ ../MYx/Src/MyFunc_CLI.c:152:32
	adds	r0, r1, r0
	.loc	1 152 16                @ ../MYx/Src/MyFunc_CLI.c:152:16
	str	r0, [sp, #28]
	.loc	1 153 7 is_stmt 1       @ ../MYx/Src/MyFunc_CLI.c:153:7
	b	.LBB5_13
.Ltmp26:
.LBB5_12:
	.loc	1 156 28                @ ../MYx/Src/MyFunc_CLI.c:156:28
	ldr	r0, __arm_cp.5_0
	movs	r1, #86
	movs	r2, #5
	strb	r2, [r0, r1]
	movs	r0, #0
	.loc	1 157 9                 @ ../MYx/Src/MyFunc_CLI.c:157:9
	str	r0, [sp, #52]
	b	.LBB5_18
.Ltmp27:
.LBB5_13:                               @   in Loop: Header=BB5_1 Depth=1
	.loc	1 0 9 is_stmt 0         @ ../MYx/Src/MyFunc_CLI.c:0:9
	b	.LBB5_14
.LBB5_14:                               @   in Loop: Header=BB5_1 Depth=1
	b	.LBB5_15
.LBB5_15:                               @   in Loop: Header=BB5_1 Depth=1
	.loc	1 160 3 is_stmt 1       @ ../MYx/Src/MyFunc_CLI.c:160:3
	b	.LBB5_16
.Ltmp28:
.LBB5_16:                               @   in Loop: Header=BB5_1 Depth=1
	.loc	1 136 28                @ ../MYx/Src/MyFunc_CLI.c:136:28
	ldr	r0, [sp, #20]
	adds	r0, r0, #1
	add	r1, sp, #20
	strb	r0, [r1]
	.loc	1 136 3 is_stmt 0       @ ../MYx/Src/MyFunc_CLI.c:136:3
	b	.LBB5_1
.Ltmp29:
.LBB5_17:
	.loc	1 161 10 is_stmt 1      @ ../MYx/Src/MyFunc_CLI.c:161:10
	ldr	r0, [sp, #28]
	.loc	1 161 3 is_stmt 0       @ ../MYx/Src/MyFunc_CLI.c:161:3
	str	r0, [sp, #52]
	b	.LBB5_18
.LBB5_18:
	.loc	1 162 1 is_stmt 1       @ ../MYx/Src/MyFunc_CLI.c:162:1
	ldr	r0, [sp, #52]
	add	sp, #56
	pop	{r4, r5, r7, pc}
.Ltmp30:
	.p2align	2
@ %bb.19:
	.loc	1 0 1 is_stmt 0         @ ../MYx/Src/MyFunc_CLI.c:0:1
__arm_cp.5_0:
	.long	commandState
.Lcpi_end4:
	.size	__arm_cp.5_0, .Lcpi_end4-__arm_cp.5_0
.Lfunc_end5:
	.size	MyCLI_StringToUnsignedInt, .Lfunc_end5-MyCLI_StringToUnsignedInt
	.cfi_endproc
	.cantunwind
	.fnend
                                        @ -- End function
	.hidden	MyCLI_ProcessCommandString @ -- Begin function MyCLI_ProcessCommandString
	.globl	MyCLI_ProcessCommandString
	.p2align	2
	.type	MyCLI_ProcessCommandString,%function
	.code	16                      @ @MyCLI_ProcessCommandString
	.thumb_func
MyCLI_ProcessCommandString:
.Lfunc_begin6:
	.loc	1 276 0 is_stmt 1       @ ../MYx/Src/MyFunc_CLI.c:276:0
	.fnstart
	.cfi_startproc
@ %bb.0:
	.save	{r7, lr}
	push	{r7, lr}
	.cfi_def_cfa_offset 8
	.cfi_offset lr, -4
	.cfi_offset r7, -8
	.pad	#40
	sub	sp, #40
	.cfi_def_cfa_offset 48
	mov	r2, r1
	str	r0, [sp, #36]
	add	r0, sp, #32
	strb	r1, [r0]
	add	r0, sp, #28
	movs	r1, #0
.Ltmp31:
	.loc	1 277 11 prologue_end   @ ../MYx/Src/MyFunc_CLI.c:277:11
	strb	r1, [r0]
	.loc	1 280 3                 @ ../MYx/Src/MyFunc_CLI.c:280:3
	b	.LBB6_1
.LBB6_1:                                @ =>This Inner Loop Header: Depth=1
.Ltmp32:
	.loc	1 284 9                 @ ../MYx/Src/MyFunc_CLI.c:284:9
	ldr	r0, [sp, #36]
.Ltmp33:
	.loc	1 284 9 is_stmt 0       @ ../MYx/Src/MyFunc_CLI.c:284:9
	cmp	r0, #0
	bne	.LBB6_3
	b	.LBB6_2
.LBB6_2:                                @   in Loop: Header=BB6_1 Depth=1
.Ltmp34:
	.loc	1 297 2 is_stmt 1       @ ../MYx/Src/MyFunc_CLI.c:297:2
	b	.LBB6_7
.Ltmp35:
.LBB6_3:                                @   in Loop: Header=BB6_1 Depth=1
	.loc	1 0 2 is_stmt 0         @ ../MYx/Src/MyFunc_CLI.c:0:2
	add	r0, sp, #32
.Ltmp36:
	.loc	1 298 14 is_stmt 1      @ ../MYx/Src/MyFunc_CLI.c:298:14
	ldrb	r0, [r0]
.Ltmp37:
	.loc	1 298 14 is_stmt 0      @ ../MYx/Src/MyFunc_CLI.c:298:14
	cmp	r0, #0
	bne	.LBB6_5
	b	.LBB6_4
.LBB6_4:
	.loc	1 0 14                  @ ../MYx/Src/MyFunc_CLI.c:0:14
	add	r0, sp, #28
.Ltmp38:
	.loc	1 300 14 is_stmt 1      @ ../MYx/Src/MyFunc_CLI.c:300:14
	ldrb	r0, [r0]
	.loc	1 300 7 is_stmt 0       @ ../MYx/Src/MyFunc_CLI.c:300:7
	add	sp, #40
	pop	{r7, pc}
.Ltmp39:
.LBB6_5:                                @   in Loop: Header=BB6_1 Depth=1
	.loc	1 304 15 is_stmt 1      @ ../MYx/Src/MyFunc_CLI.c:304:15
	ldr	r0, [sp, #36]
	.loc	1 304 14 is_stmt 0      @ ../MYx/Src/MyFunc_CLI.c:304:14
	ldrb	r0, [r0]
	add	r1, sp, #16
	.loc	1 304 12                @ ../MYx/Src/MyFunc_CLI.c:304:12
	strb	r0, [r1]
	.loc	1 305 13 is_stmt 1      @ ../MYx/Src/MyFunc_CLI.c:305:13
	ldr	r0, [sp, #36]
	adds	r0, r0, #1
	str	r0, [sp, #36]
	.loc	1 306 18                @ ../MYx/Src/MyFunc_CLI.c:306:18
	ldr	r0, [sp, #32]
	subs	r0, r0, #1
	add	r1, sp, #32
	strb	r0, [r1]
	b	.LBB6_6
.Ltmp40:
.LBB6_6:                                @   in Loop: Header=BB6_1 Depth=1
	.loc	1 0 18 is_stmt 0        @ ../MYx/Src/MyFunc_CLI.c:0:18
	b	.LBB6_7
.LBB6_7:                                @   in Loop: Header=BB6_1 Depth=1
	add	r0, sp, #16
.Ltmp41:
	.loc	1 311 9 is_stmt 1       @ ../MYx/Src/MyFunc_CLI.c:311:9
	ldrb	r0, [r0]
.Ltmp42:
	.loc	1 311 9 is_stmt 0       @ ../MYx/Src/MyFunc_CLI.c:311:9
	cmp	r0, #13
	bne	.LBB6_9
	b	.LBB6_8
.LBB6_8:                                @   in Loop: Header=BB6_1 Depth=1
.Ltmp43:
	.loc	1 312 7 is_stmt 1       @ ../MYx/Src/MyFunc_CLI.c:312:7
	b	.LBB6_1
.Ltmp44:
.LBB6_9:                                @   in Loop: Header=BB6_1 Depth=1
	.loc	1 0 7 is_stmt 0         @ ../MYx/Src/MyFunc_CLI.c:0:7
	add	r0, sp, #16
	.loc	1 314 16 is_stmt 1      @ ../MYx/Src/MyFunc_CLI.c:314:16
	ldrb	r1, [r0]
	.loc	1 314 21 is_stmt 0      @ ../MYx/Src/MyFunc_CLI.c:314:21
	subs	r1, #10
	rsbs	r2, r1, #0
	adcs	r1, r2
	add	r2, sp, #28
	.loc	1 314 11                @ ../MYx/Src/MyFunc_CLI.c:314:11
	strb	r1, [r2]
	.loc	1 315 16 is_stmt 1      @ ../MYx/Src/MyFunc_CLI.c:315:16
	ldrb	r1, [r0]
	.loc	1 315 21 is_stmt 0      @ ../MYx/Src/MyFunc_CLI.c:315:21
	subs	r1, #32
	rsbs	r2, r1, #0
	adcs	r1, r2
	add	r2, sp, #24
	.loc	1 315 13                @ ../MYx/Src/MyFunc_CLI.c:315:13
	strb	r1, [r2]
	.loc	1 316 16 is_stmt 1      @ ../MYx/Src/MyFunc_CLI.c:316:16
	ldrb	r0, [r0]
	.loc	1 316 21 is_stmt 0      @ ../MYx/Src/MyFunc_CLI.c:316:21
	subs	r0, #34
	rsbs	r1, r0, #0
	adcs	r0, r1
	add	r1, sp, #20
	.loc	1 316 13                @ ../MYx/Src/MyFunc_CLI.c:316:13
	strb	r0, [r1]
	.loc	1 318 26 is_stmt 1      @ ../MYx/Src/MyFunc_CLI.c:318:26
	ldr	r0, __arm_cp.6_0
	ldrb	r0, [r0]
	.loc	1 318 5 is_stmt 0       @ ../MYx/Src/MyFunc_CLI.c:318:5
	cmp	r0, #4
	str	r0, [sp, #4]            @ 4-byte Spill
	bls	.LBB6_10
	b	.LBB6_61
.LBB6_10:                               @   in Loop: Header=BB6_1 Depth=1
	.loc	1 0 5                   @ ../MYx/Src/MyFunc_CLI.c:0:5
	ldr	r0, [sp, #4]            @ 4-byte Reload
	lsls	r1, r0, #2
	adr	r2, .LJTI6_0
	adds	r1, r2, r1
	mov	pc, r1
@ %bb.11:
	.p2align	2
.LJTI6_0:
	b.w	.LBB6_12
	b.w	.LBB6_24
	b.w	.LBB6_28
	b.w	.LBB6_31
	b.w	.LBB6_46
.LBB6_12:                               @   in Loop: Header=BB6_1 Depth=1
	add	r0, sp, #28
.Ltmp45:
	.loc	1 322 11 is_stmt 1      @ ../MYx/Src/MyFunc_CLI.c:322:11
	ldrb	r0, [r0]
.Ltmp46:
	.loc	1 322 11 is_stmt 0      @ ../MYx/Src/MyFunc_CLI.c:322:11
	cmp	r0, #0
	beq	.LBB6_14
	b	.LBB6_13
.LBB6_13:                               @   in Loop: Header=BB6_1 Depth=1
.Ltmp47:
	.loc	1 324 8 is_stmt 1       @ ../MYx/Src/MyFunc_CLI.c:324:8
	bl	MyCLI_CallCommandAction
	.loc	1 325 7                 @ ../MYx/Src/MyFunc_CLI.c:325:7
	b	.LBB6_23
.Ltmp48:
.LBB6_14:                               @   in Loop: Header=BB6_1 Depth=1
	.loc	1 0 7 is_stmt 0         @ ../MYx/Src/MyFunc_CLI.c:0:7
	add	r0, sp, #24
.Ltmp49:
	.loc	1 326 18 is_stmt 1      @ ../MYx/Src/MyFunc_CLI.c:326:18
	ldrb	r0, [r0]
.Ltmp50:
	.loc	1 326 16 is_stmt 0      @ ../MYx/Src/MyFunc_CLI.c:326:16
	cmp	r0, #0
	bne	.LBB6_22
	b	.LBB6_15
.LBB6_15:                               @   in Loop: Header=BB6_1 Depth=1
	.loc	1 0 16                  @ ../MYx/Src/MyFunc_CLI.c:0:16
	add	r0, sp, #20
.Ltmp51:
	.loc	1 328 13 is_stmt 1      @ ../MYx/Src/MyFunc_CLI.c:328:13
	ldrb	r0, [r0]
.Ltmp52:
	.loc	1 328 13 is_stmt 0      @ ../MYx/Src/MyFunc_CLI.c:328:13
	cmp	r0, #0
	beq	.LBB6_17
	b	.LBB6_16
.LBB6_16:                               @   in Loop: Header=BB6_1 Depth=1
.Ltmp53:
	.loc	1 330 30 is_stmt 1      @ ../MYx/Src/MyFunc_CLI.c:330:30
	ldr	r0, __arm_cp.6_0
	movs	r1, #2
	strb	r1, [r0]
	.loc	1 331 9                 @ ../MYx/Src/MyFunc_CLI.c:331:9
	b	.LBB6_21
.Ltmp54:
.LBB6_17:                               @   in Loop: Header=BB6_1 Depth=1
	.loc	1 0 9 is_stmt 0         @ ../MYx/Src/MyFunc_CLI.c:0:9
	add	r0, sp, #16
.Ltmp55:
	.loc	1 332 18 is_stmt 1      @ ../MYx/Src/MyFunc_CLI.c:332:18
	ldrb	r0, [r0]
.Ltmp56:
	.loc	1 332 18 is_stmt 0      @ ../MYx/Src/MyFunc_CLI.c:332:18
	cmp	r0, #123
	bne	.LBB6_19
	b	.LBB6_18
.LBB6_18:                               @   in Loop: Header=BB6_1 Depth=1
.Ltmp57:
	.loc	1 334 30 is_stmt 1      @ ../MYx/Src/MyFunc_CLI.c:334:30
	ldr	r0, __arm_cp.6_0
	movs	r1, #3
	strb	r1, [r0]
	.loc	1 335 9                 @ ../MYx/Src/MyFunc_CLI.c:335:9
	b	.LBB6_20
.Ltmp58:
.LBB6_19:                               @   in Loop: Header=BB6_1 Depth=1
	.loc	1 338 30                @ ../MYx/Src/MyFunc_CLI.c:338:30
	ldr	r0, __arm_cp.6_0
	movs	r1, #1
	strb	r1, [r0]
	b	.LBB6_20
.Ltmp59:
.LBB6_20:                               @   in Loop: Header=BB6_1 Depth=1
	.loc	1 0 30 is_stmt 0        @ ../MYx/Src/MyFunc_CLI.c:0:30
	b	.LBB6_21
.LBB6_21:                               @   in Loop: Header=BB6_1 Depth=1
	.loc	1 340 9 is_stmt 1       @ ../MYx/Src/MyFunc_CLI.c:340:9
	b	.LBB6_56
.Ltmp60:
.LBB6_22:                               @   in Loop: Header=BB6_1 Depth=1
	.loc	1 0 9 is_stmt 0         @ ../MYx/Src/MyFunc_CLI.c:0:9
	b	.LBB6_23
.LBB6_23:                               @   in Loop: Header=BB6_1 Depth=1
	.loc	1 342 7 is_stmt 1       @ ../MYx/Src/MyFunc_CLI.c:342:7
	b	.LBB6_61
.LBB6_24:                               @   in Loop: Header=BB6_1 Depth=1
	.loc	1 0 7 is_stmt 0         @ ../MYx/Src/MyFunc_CLI.c:0:7
	add	r0, sp, #28
.Ltmp61:
	.loc	1 345 11 is_stmt 1      @ ../MYx/Src/MyFunc_CLI.c:345:11
	ldrb	r0, [r0]
	.loc	1 345 17 is_stmt 0      @ ../MYx/Src/MyFunc_CLI.c:345:17
	cmp	r0, #0
	bne	.LBB6_26
	b	.LBB6_25
.LBB6_25:                               @   in Loop: Header=BB6_1 Depth=1
	.loc	1 0 17                  @ ../MYx/Src/MyFunc_CLI.c:0:17
	add	r0, sp, #24
	.loc	1 345 20                @ ../MYx/Src/MyFunc_CLI.c:345:20
	ldrb	r0, [r0]
.Ltmp62:
	.loc	1 345 11                @ ../MYx/Src/MyFunc_CLI.c:345:11
	cmp	r0, #0
	beq	.LBB6_27
	b	.LBB6_26
.LBB6_26:                               @   in Loop: Header=BB6_1 Depth=1
.Ltmp63:
	.loc	1 347 9 is_stmt 1       @ ../MYx/Src/MyFunc_CLI.c:347:9
	b	.LBB6_51
.Ltmp64:
.LBB6_27:                               @   in Loop: Header=BB6_1 Depth=1
	.loc	1 351 9                 @ ../MYx/Src/MyFunc_CLI.c:351:9
	b	.LBB6_56
.Ltmp65:
.LBB6_28:                               @   in Loop: Header=BB6_1 Depth=1
	.loc	1 0 9 is_stmt 0         @ ../MYx/Src/MyFunc_CLI.c:0:9
	add	r0, sp, #20
.Ltmp66:
	.loc	1 355 11 is_stmt 1      @ ../MYx/Src/MyFunc_CLI.c:355:11
	ldrb	r0, [r0]
.Ltmp67:
	.loc	1 355 11 is_stmt 0      @ ../MYx/Src/MyFunc_CLI.c:355:11
	cmp	r0, #0
	beq	.LBB6_30
	b	.LBB6_29
.LBB6_29:                               @   in Loop: Header=BB6_1 Depth=1
.Ltmp68:
	.loc	1 357 9 is_stmt 1       @ ../MYx/Src/MyFunc_CLI.c:357:9
	b	.LBB6_51
.Ltmp69:
.LBB6_30:                               @   in Loop: Header=BB6_1 Depth=1
	.loc	1 361 9                 @ ../MYx/Src/MyFunc_CLI.c:361:9
	b	.LBB6_56
.Ltmp70:
.LBB6_31:                               @   in Loop: Header=BB6_1 Depth=1
	.loc	1 366 51                @ ../MYx/Src/MyFunc_CLI.c:366:51
	ldr	r0, __arm_cp.6_0
	movs	r1, #87
	ldrb	r0, [r0, r1]
	.loc	1 366 65 is_stmt 0      @ ../MYx/Src/MyFunc_CLI.c:366:65
	subs	r0, #255
	subs	r1, r0, #1
	sbcs	r0, r1
	add	r1, sp, #12
	.loc	1 366 15                @ ../MYx/Src/MyFunc_CLI.c:366:15
	strb	r0, [r1]
	add	r0, sp, #16
.Ltmp71:
	.loc	1 367 11 is_stmt 1      @ ../MYx/Src/MyFunc_CLI.c:367:11
	ldrb	r0, [r0]
.Ltmp72:
	.loc	1 367 11 is_stmt 0      @ ../MYx/Src/MyFunc_CLI.c:367:11
	cmp	r0, #125
	bne	.LBB6_35
	b	.LBB6_32
.LBB6_32:                               @   in Loop: Header=BB6_1 Depth=1
	.loc	1 0 11                  @ ../MYx/Src/MyFunc_CLI.c:0:11
	add	r0, sp, #12
.Ltmp73:
	.loc	1 369 13 is_stmt 1      @ ../MYx/Src/MyFunc_CLI.c:369:13
	ldrb	r0, [r0]
.Ltmp74:
	.loc	1 369 13 is_stmt 0      @ ../MYx/Src/MyFunc_CLI.c:369:13
	cmp	r0, #0
	beq	.LBB6_34
	b	.LBB6_33
.LBB6_33:                               @   in Loop: Header=BB6_1 Depth=1
.Ltmp75:
	.loc	1 371 30 is_stmt 1      @ ../MYx/Src/MyFunc_CLI.c:371:30
	ldr	r0, __arm_cp.6_0
	movs	r1, #86
	movs	r2, #5
	strb	r2, [r0, r1]
	.loc	1 372 11                @ ../MYx/Src/MyFunc_CLI.c:372:11
	b	.LBB6_45
.Ltmp76:
.LBB6_34:                               @   in Loop: Header=BB6_1 Depth=1
	.loc	1 374 9                 @ ../MYx/Src/MyFunc_CLI.c:374:9
	b	.LBB6_51
.Ltmp77:
.LBB6_35:                               @   in Loop: Header=BB6_1 Depth=1
	.loc	1 0 9 is_stmt 0         @ ../MYx/Src/MyFunc_CLI.c:0:9
	add	r0, sp, #16
.Ltmp78:
	.loc	1 378 37 is_stmt 1      @ ../MYx/Src/MyFunc_CLI.c:378:37
	ldrb	r0, [r0]
	.loc	1 378 25 is_stmt 0      @ ../MYx/Src/MyFunc_CLI.c:378:25
	bl	My_HexToInt
	add	r1, sp, #8
	.loc	1 378 17                @ ../MYx/Src/MyFunc_CLI.c:378:17
	strb	r0, [r1]
.Ltmp79:
	.loc	1 379 13 is_stmt 1      @ ../MYx/Src/MyFunc_CLI.c:379:13
	ldrb	r0, [r1]
.Ltmp80:
	.loc	1 379 13 is_stmt 0      @ ../MYx/Src/MyFunc_CLI.c:379:13
	cmp	r0, #15
	bgt	.LBB6_40
	b	.LBB6_36
.LBB6_36:                               @   in Loop: Header=BB6_1 Depth=1
	.loc	1 0 13                  @ ../MYx/Src/MyFunc_CLI.c:0:13
	add	r0, sp, #12
.Ltmp81:
	.loc	1 381 15 is_stmt 1      @ ../MYx/Src/MyFunc_CLI.c:381:15
	ldrb	r0, [r0]
.Ltmp82:
	.loc	1 381 15 is_stmt 0      @ ../MYx/Src/MyFunc_CLI.c:381:15
	cmp	r0, #0
	beq	.LBB6_38
	b	.LBB6_37
.LBB6_37:                               @   in Loop: Header=BB6_1 Depth=1
.Ltmp83:
	.loc	1 383 34 is_stmt 1      @ ../MYx/Src/MyFunc_CLI.c:383:34
	ldr	r0, __arm_cp.6_0
	movs	r1, #87
	.loc	1 383 21 is_stmt 0      @ ../MYx/Src/MyFunc_CLI.c:383:21
	ldrb	r2, [r0, r1]
	.loc	1 383 48                @ ../MYx/Src/MyFunc_CLI.c:383:48
	lsls	r2, r2, #4
	.loc	1 383 56                @ ../MYx/Src/MyFunc_CLI.c:383:56
	ldr	r3, [sp, #8]
	.loc	1 383 54                @ ../MYx/Src/MyFunc_CLI.c:383:54
	adds	r2, r2, r3
	add	r3, sp, #16
	.loc	1 383 18                @ ../MYx/Src/MyFunc_CLI.c:383:18
	strb	r2, [r3]
	movs	r2, #255
	.loc	1 384 40 is_stmt 1      @ ../MYx/Src/MyFunc_CLI.c:384:40
	strb	r2, [r0, r1]
	.loc	1 385 13                @ ../MYx/Src/MyFunc_CLI.c:385:13
	b	.LBB6_56
.Ltmp84:
.LBB6_38:                               @   in Loop: Header=BB6_1 Depth=1
	.loc	1 389 42                @ ../MYx/Src/MyFunc_CLI.c:389:42
	ldr	r0, [sp, #8]
	.loc	1 389 40 is_stmt 0      @ ../MYx/Src/MyFunc_CLI.c:389:40
	ldr	r1, __arm_cp.6_0
	movs	r2, #87
	strb	r0, [r1, r2]
	b	.LBB6_39
.Ltmp85:
.LBB6_39:                               @   in Loop: Header=BB6_1 Depth=1
	.loc	1 391 9 is_stmt 1       @ ../MYx/Src/MyFunc_CLI.c:391:9
	b	.LBB6_43
.Ltmp86:
.LBB6_40:                               @   in Loop: Header=BB6_1 Depth=1
	.loc	1 0 9 is_stmt 0         @ ../MYx/Src/MyFunc_CLI.c:0:9
	add	r0, sp, #24
.Ltmp87:
	.loc	1 392 16 is_stmt 1      @ ../MYx/Src/MyFunc_CLI.c:392:16
	ldrb	r0, [r0]
.Ltmp88:
	.loc	1 392 14 is_stmt 0      @ ../MYx/Src/MyFunc_CLI.c:392:14
	cmp	r0, #0
	bne	.LBB6_42
	b	.LBB6_41
.LBB6_41:                               @   in Loop: Header=BB6_1 Depth=1
.Ltmp89:
	.loc	1 394 30 is_stmt 1      @ ../MYx/Src/MyFunc_CLI.c:394:30
	ldr	r0, __arm_cp.6_0
	movs	r1, #86
	movs	r2, #5
	strb	r2, [r0, r1]
	.loc	1 395 11                @ ../MYx/Src/MyFunc_CLI.c:395:11
	b	.LBB6_45
.Ltmp90:
.LBB6_42:                               @   in Loop: Header=BB6_1 Depth=1
	.loc	1 0 11 is_stmt 0        @ ../MYx/Src/MyFunc_CLI.c:0:11
	b	.LBB6_43
.LBB6_43:                               @   in Loop: Header=BB6_1 Depth=1
	b	.LBB6_44
.LBB6_44:                               @   in Loop: Header=BB6_1 Depth=1
	.loc	1 398 7 is_stmt 1       @ ../MYx/Src/MyFunc_CLI.c:398:7
	b	.LBB6_61
.Ltmp91:
.LBB6_45:                               @   in Loop: Header=BB6_1 Depth=1
	@DEBUG_LABEL: CMD_READING_TO_EOL
	.loc	1 402 26                @ ../MYx/Src/MyFunc_CLI.c:402:26
	ldr	r0, __arm_cp.6_0
	movs	r1, #4
	strb	r1, [r0]
	.loc	1 402 7 is_stmt 0       @ ../MYx/Src/MyFunc_CLI.c:402:7
	b	.LBB6_46
.LBB6_46:                               @   in Loop: Header=BB6_1 Depth=1
	.loc	1 0 7                   @ ../MYx/Src/MyFunc_CLI.c:0:7
	add	r0, sp, #28
.Ltmp92:
	.loc	1 405 11 is_stmt 1      @ ../MYx/Src/MyFunc_CLI.c:405:11
	ldrb	r0, [r0]
.Ltmp93:
	.loc	1 405 11 is_stmt 0      @ ../MYx/Src/MyFunc_CLI.c:405:11
	cmp	r0, #0
	beq	.LBB6_50
	b	.LBB6_47
.LBB6_47:                               @   in Loop: Header=BB6_1 Depth=1
.Ltmp94:
	.loc	1 407 26 is_stmt 1      @ ../MYx/Src/MyFunc_CLI.c:407:26
	ldr	r0, __arm_cp.6_0
	movs	r1, #86
	ldrb	r0, [r0, r1]
.Ltmp95:
	.loc	1 407 13 is_stmt 0      @ ../MYx/Src/MyFunc_CLI.c:407:13
	cmp	r0, #0
	beq	.LBB6_49
	b	.LBB6_48
.LBB6_48:                               @   in Loop: Header=BB6_1 Depth=1
.Ltmp96:
	.loc	1 409 50 is_stmt 1      @ ../MYx/Src/MyFunc_CLI.c:409:50
	ldr	r0, __arm_cp.6_0
	movs	r1, #86
	ldrb	r0, [r0, r1]
	.loc	1 409 11 is_stmt 0      @ ../MYx/Src/MyFunc_CLI.c:409:11
	bl	MyCLI_CommandErrorHandler
	.loc	1 410 9 is_stmt 1       @ ../MYx/Src/MyFunc_CLI.c:410:9
	b	.LBB6_49
.Ltmp97:
.LBB6_49:                               @   in Loop: Header=BB6_1 Depth=1
	.loc	1 411 9                 @ ../MYx/Src/MyFunc_CLI.c:411:9
	bl	MyCLI_CommandReaderInit
	.loc	1 412 7                 @ ../MYx/Src/MyFunc_CLI.c:412:7
	b	.LBB6_50
.Ltmp98:
.LBB6_50:                               @   in Loop: Header=BB6_1 Depth=1
	.loc	1 413 7                 @ ../MYx/Src/MyFunc_CLI.c:413:7
	b	.LBB6_61
.LBB6_51:                               @   in Loop: Header=BB6_1 Depth=1
.Ltmp99:
	@DEBUG_LABEL: END_ARGUMENT
	.loc	1 416 24                @ ../MYx/Src/MyFunc_CLI.c:416:24
	ldr	r0, __arm_cp.6_0
	movs	r1, #83
	ldrb	r0, [r0, r1]
.Ltmp100:
	.loc	1 416 11 is_stmt 0      @ ../MYx/Src/MyFunc_CLI.c:416:11
	cmp	r0, #17
	bne	.LBB6_53
	b	.LBB6_52
.LBB6_52:                               @   in Loop: Header=BB6_1 Depth=1
.Ltmp101:
	.loc	1 418 28 is_stmt 1      @ ../MYx/Src/MyFunc_CLI.c:418:28
	ldr	r0, __arm_cp.6_0
	movs	r1, #86
	movs	r2, #3
	strb	r2, [r0, r1]
	.loc	1 419 9                 @ ../MYx/Src/MyFunc_CLI.c:419:9
	b	.LBB6_45
.Ltmp102:
.LBB6_53:                               @   in Loop: Header=BB6_1 Depth=1
	.loc	1 421 31                @ ../MYx/Src/MyFunc_CLI.c:421:31
	ldr	r0, __arm_cp.6_0
	movs	r1, #83
	ldrb	r2, [r0, r1]
	adds	r2, r2, #1
	strb	r2, [r0, r1]
	movs	r2, #84
	.loc	1 422 73                @ ../MYx/Src/MyFunc_CLI.c:422:73
	ldrb	r2, [r0, r2]
	.loc	1 422 46 is_stmt 0      @ ../MYx/Src/MyFunc_CLI.c:422:46
	ldrb	r1, [r0, r1]
	.loc	1 422 7                 @ ../MYx/Src/MyFunc_CLI.c:422:7
	adds	r1, r0, r1
	movs	r3, #65
	.loc	1 422 58                @ ../MYx/Src/MyFunc_CLI.c:422:58
	strb	r2, [r1, r3]
	movs	r1, #0
	.loc	1 423 26 is_stmt 1      @ ../MYx/Src/MyFunc_CLI.c:423:26
	strb	r1, [r0]
	add	r0, sp, #28
.Ltmp103:
	.loc	1 424 11                @ ../MYx/Src/MyFunc_CLI.c:424:11
	ldrb	r0, [r0]
.Ltmp104:
	.loc	1 424 11 is_stmt 0      @ ../MYx/Src/MyFunc_CLI.c:424:11
	cmp	r0, #0
	beq	.LBB6_55
	b	.LBB6_54
.LBB6_54:                               @   in Loop: Header=BB6_1 Depth=1
.Ltmp105:
	.loc	1 426 8 is_stmt 1       @ ../MYx/Src/MyFunc_CLI.c:426:8
	bl	MyCLI_CallCommandAction
	.loc	1 427 7                 @ ../MYx/Src/MyFunc_CLI.c:427:7
	b	.LBB6_55
.Ltmp106:
.LBB6_55:                               @   in Loop: Header=BB6_1 Depth=1
	.loc	1 428 7                 @ ../MYx/Src/MyFunc_CLI.c:428:7
	b	.LBB6_61
.LBB6_56:                               @   in Loop: Header=BB6_1 Depth=1
.Ltmp107:
	@DEBUG_LABEL: WRITE_TO_BUFFER
	.loc	1 431 24                @ ../MYx/Src/MyFunc_CLI.c:431:24
	ldr	r0, __arm_cp.6_0
	movs	r1, #84
	ldrh	r0, [r0, r1]
.Ltmp108:
	.loc	1 431 11 is_stmt 0      @ ../MYx/Src/MyFunc_CLI.c:431:11
	cmp	r0, #64
	bne	.LBB6_58
	b	.LBB6_57
.LBB6_57:                               @   in Loop: Header=BB6_1 Depth=1
.Ltmp109:
	.loc	1 433 28 is_stmt 1      @ ../MYx/Src/MyFunc_CLI.c:433:28
	ldr	r0, __arm_cp.6_0
	movs	r1, #86
	movs	r2, #6
	strb	r2, [r0, r1]
	.loc	1 434 9                 @ ../MYx/Src/MyFunc_CLI.c:434:9
	b	.LBB6_45
.Ltmp110:
.LBB6_58:                               @   in Loop: Header=BB6_1 Depth=1
	.loc	1 436 24                @ ../MYx/Src/MyFunc_CLI.c:436:24
	ldr	r0, __arm_cp.6_0
	ldrb	r0, [r0]
.Ltmp111:
	.loc	1 436 11 is_stmt 0      @ ../MYx/Src/MyFunc_CLI.c:436:11
	cmp	r0, #1
	bne	.LBB6_60
	b	.LBB6_59
.LBB6_59:                               @   in Loop: Header=BB6_1 Depth=1
	.loc	1 0 11                  @ ../MYx/Src/MyFunc_CLI.c:0:11
	add	r0, sp, #16
.Ltmp112:
	.loc	1 438 32 is_stmt 1      @ ../MYx/Src/MyFunc_CLI.c:438:32
	ldrb	r1, [r0]
	.loc	1 438 16 is_stmt 0      @ ../MYx/Src/MyFunc_CLI.c:438:16
	str	r0, [sp]                @ 4-byte Spill
	mov	r0, r1
	bl	My_CharDowncase
	.loc	1 438 14                @ ../MYx/Src/MyFunc_CLI.c:438:14
	ldr	r1, [sp]                @ 4-byte Reload
	strb	r0, [r1]
	.loc	1 439 7 is_stmt 1       @ ../MYx/Src/MyFunc_CLI.c:439:7
	b	.LBB6_60
.Ltmp113:
.LBB6_60:                               @   in Loop: Header=BB6_1 Depth=1
	.loc	1 440 49                @ ../MYx/Src/MyFunc_CLI.c:440:49
	ldr	r0, [sp, #16]
	.loc	1 440 40 is_stmt 0      @ ../MYx/Src/MyFunc_CLI.c:440:40
	ldr	r1, __arm_cp.6_0
	movs	r2, #84
	ldrh	r3, [r1, r2]
	.loc	1 440 7                 @ ../MYx/Src/MyFunc_CLI.c:440:7
	adds	r3, r1, r3
	.loc	1 440 47                @ ../MYx/Src/MyFunc_CLI.c:440:47
	strb	r0, [r3, #1]
	.loc	1 441 26 is_stmt 1      @ ../MYx/Src/MyFunc_CLI.c:441:26
	ldrh	r0, [r1, r2]
	adds	r0, r0, #1
	strh	r0, [r1, r2]
	.loc	1 442 7                 @ ../MYx/Src/MyFunc_CLI.c:442:7
	b	.LBB6_61
.Ltmp114:
.LBB6_61:                               @   in Loop: Header=BB6_1 Depth=1
	.loc	1 280 3                 @ ../MYx/Src/MyFunc_CLI.c:280:3
	b	.LBB6_1
.Ltmp115:
	.p2align	2
@ %bb.62:
	.loc	1 0 3 is_stmt 0         @ ../MYx/Src/MyFunc_CLI.c:0:3
__arm_cp.6_0:
	.long	commandState
.Lcpi_end5:
	.size	__arm_cp.6_0, .Lcpi_end5-__arm_cp.6_0
.Lfunc_end6:
	.size	MyCLI_ProcessCommandString, .Lfunc_end6-MyCLI_ProcessCommandString
	.cfi_endproc
	.cantunwind
	.fnend
                                        @ -- End function
	.p2align	2               @ -- Begin function MyCLI_CallCommandAction
	.type	MyCLI_CallCommandAction,%function
	.code	16                      @ @MyCLI_CallCommandAction
	.thumb_func
MyCLI_CallCommandAction:
.Lfunc_begin7:
	.loc	1 170 0 is_stmt 1       @ ../MYx/Src/MyFunc_CLI.c:170:0
	.fnstart
	.cfi_startproc
@ %bb.0:
	.save	{r7, lr}
	push	{r7, lr}
	.cfi_def_cfa_offset 8
	.cfi_offset lr, -4
	.cfi_offset r7, -8
	.pad	#48
	sub	sp, #48
	.cfi_def_cfa_offset 56
.Ltmp116:
	.loc	1 171 17 prologue_end   @ ../MYx/Src/MyFunc_CLI.c:171:17
	ldr	r0, __arm_cp.7_0
	str	r0, [sp, #44]
	add	r0, sp, #40
	movs	r1, #0
	.loc	1 172 11                @ ../MYx/Src/MyFunc_CLI.c:172:11
	strb	r1, [r0]
.Ltmp117:
	.loc	1 175 20                @ ../MYx/Src/MyFunc_CLI.c:175:20
	ldr	r0, __arm_cp.7_1
	movs	r1, #83
	ldrb	r0, [r0, r1]
.Ltmp118:
	.loc	1 175 7 is_stmt 0       @ ../MYx/Src/MyFunc_CLI.c:175:7
	cmp	r0, #0
	bne	.LBB7_2
	b	.LBB7_1
.LBB7_1:
.Ltmp119:
	.loc	1 176 5 is_stmt 1       @ ../MYx/Src/MyFunc_CLI.c:176:5
	b	.LBB7_44
.Ltmp120:
.LBB7_2:
	.loc	1 180 3                 @ ../MYx/Src/MyFunc_CLI.c:180:3
	b	.LBB7_3
.LBB7_3:                                @ =>This Inner Loop Header: Depth=1
.Ltmp121:
	.loc	1 181 41                @ ../MYx/Src/MyFunc_CLI.c:181:41
	ldr	r0, [sp, #44]
	add	r1, sp, #40
	.loc	1 181 56 is_stmt 0      @ ../MYx/Src/MyFunc_CLI.c:181:56
	ldrb	r1, [r1]
	.loc	1 181 21                @ ../MYx/Src/MyFunc_CLI.c:181:21
	bl	MyCLI_CommandLookup
	.loc	1 181 19                @ ../MYx/Src/MyFunc_CLI.c:181:19
	str	r0, [sp, #44]
.Ltmp122:
	.loc	1 182 9 is_stmt 1       @ ../MYx/Src/MyFunc_CLI.c:182:9
	ldr	r0, [sp, #44]
.Ltmp123:
	.loc	1 182 9 is_stmt 0       @ ../MYx/Src/MyFunc_CLI.c:182:9
	cmp	r0, #0
	beq	.LBB7_8
	b	.LBB7_4
.LBB7_4:                                @   in Loop: Header=BB7_3 Depth=1
.Ltmp124:
	.loc	1 183 16 is_stmt 1      @ ../MYx/Src/MyFunc_CLI.c:183:16
	ldr	r0, [sp, #40]
	adds	r0, r0, #1
	add	r1, sp, #40
	strb	r0, [r1]
.Ltmp125:
	.loc	1 184 11                @ ../MYx/Src/MyFunc_CLI.c:184:11
	ldr	r0, [sp, #44]
	.loc	1 184 26 is_stmt 0      @ ../MYx/Src/MyFunc_CLI.c:184:26
	ldr	r0, [r0, #8]
	.loc	1 184 11                @ ../MYx/Src/MyFunc_CLI.c:184:11
	ldrb	r0, [r0]
.Ltmp126:
	.loc	1 184 11                @ ../MYx/Src/MyFunc_CLI.c:184:11
	cmp	r0, #110
	bne	.LBB7_6
	b	.LBB7_5
.LBB7_5:                                @   in Loop: Header=BB7_3 Depth=1
.Ltmp127:
	.loc	1 188 50 is_stmt 1      @ ../MYx/Src/MyFunc_CLI.c:188:50
	ldr	r0, [sp, #44]
	.loc	1 188 65 is_stmt 0      @ ../MYx/Src/MyFunc_CLI.c:188:65
	ldr	r0, [r0, #4]
	.loc	1 188 23                @ ../MYx/Src/MyFunc_CLI.c:188:23
	str	r0, [sp, #44]
	.loc	1 189 7 is_stmt 1       @ ../MYx/Src/MyFunc_CLI.c:189:7
	b	.LBB7_7
.Ltmp128:
.LBB7_6:
	.loc	1 190 34                @ ../MYx/Src/MyFunc_CLI.c:190:34
	ldr	r0, [sp, #40]
	.loc	1 190 32 is_stmt 0      @ ../MYx/Src/MyFunc_CLI.c:190:32
	ldr	r1, __arm_cp.7_1
	movs	r2, #88
	strb	r0, [r1, r2]
	.loc	1 191 9 is_stmt 1       @ ../MYx/Src/MyFunc_CLI.c:191:9
	b	.LBB7_10
.Ltmp129:
.LBB7_7:                                @   in Loop: Header=BB7_3 Depth=1
	.loc	1 193 5                 @ ../MYx/Src/MyFunc_CLI.c:193:5
	b	.LBB7_9
.Ltmp130:
.LBB7_8:
	.loc	1 194 26                @ ../MYx/Src/MyFunc_CLI.c:194:26
	ldr	r0, __arm_cp.7_1
	movs	r1, #86
	movs	r2, #2
	strb	r2, [r0, r1]
	.loc	1 195 7                 @ ../MYx/Src/MyFunc_CLI.c:195:7
	b	.LBB7_40
.Ltmp131:
.LBB7_9:                                @   in Loop: Header=BB7_3 Depth=1
	.loc	1 180 3                 @ ../MYx/Src/MyFunc_CLI.c:180:3
	b	.LBB7_3
.LBB7_10:
	.loc	1 0 3 is_stmt 0         @ ../MYx/Src/MyFunc_CLI.c:0:3
	add	r0, sp, #36
	movs	r1, #0
.Ltmp132:
	.loc	1 200 9 is_stmt 1       @ ../MYx/Src/MyFunc_CLI.c:200:9
	strb	r1, [r0]
	.loc	1 200 7 is_stmt 0       @ ../MYx/Src/MyFunc_CLI.c:200:7
	b	.LBB7_11
.LBB7_11:                               @ =>This Inner Loop Header: Depth=1
	.loc	1 0 7                   @ ../MYx/Src/MyFunc_CLI.c:0:7
	add	r0, sp, #40
.Ltmp133:
	.loc	1 200 14                @ ../MYx/Src/MyFunc_CLI.c:200:14
	ldrb	r0, [r0]
	.loc	1 200 38                @ ../MYx/Src/MyFunc_CLI.c:200:38
	ldr	r1, __arm_cp.7_1
	movs	r2, #83
	ldrb	r1, [r1, r2]
.Ltmp134:
	.loc	1 200 3                 @ ../MYx/Src/MyFunc_CLI.c:200:3
	cmp	r0, r1
	bge	.LBB7_37
	b	.LBB7_12
.LBB7_12:                               @   in Loop: Header=BB7_11 Depth=1
.Ltmp135:
	.loc	1 201 20 is_stmt 1      @ ../MYx/Src/MyFunc_CLI.c:201:20
	ldr	r0, [sp, #44]
	.loc	1 201 35 is_stmt 0      @ ../MYx/Src/MyFunc_CLI.c:201:35
	ldr	r0, [r0, #8]
	add	r1, sp, #36
	.loc	1 201 49                @ ../MYx/Src/MyFunc_CLI.c:201:49
	ldrb	r2, [r1]
	.loc	1 201 20                @ ../MYx/Src/MyFunc_CLI.c:201:20
	ldrb	r0, [r0, r2]
	add	r2, sp, #32
	.loc	1 201 13                @ ../MYx/Src/MyFunc_CLI.c:201:13
	strb	r0, [r2]
	.loc	1 202 46 is_stmt 1      @ ../MYx/Src/MyFunc_CLI.c:202:46
	ldrb	r0, [r1]
	.loc	1 202 25 is_stmt 0      @ ../MYx/Src/MyFunc_CLI.c:202:25
	str	r2, [sp, #20]           @ 4-byte Spill
	bl	MyCLI_FirstByteOfArg
	add	r1, sp, #28
	.loc	1 202 13                @ ../MYx/Src/MyFunc_CLI.c:202:13
	strb	r0, [r1]
	.loc	1 203 12 is_stmt 1      @ ../MYx/Src/MyFunc_CLI.c:203:12
	ldr	r0, [sp, #20]           @ 4-byte Reload
	ldrb	r1, [r0]
	.loc	1 203 5 is_stmt 0       @ ../MYx/Src/MyFunc_CLI.c:203:5
	cmp	r1, #0
	str	r1, [sp, #16]           @ 4-byte Spill
	beq	.LBB7_31
	b	.LBB7_13
.LBB7_13:                               @   in Loop: Header=BB7_11 Depth=1
	ldr	r0, [sp, #16]           @ 4-byte Reload
	cmp	r0, #98
	beq	.LBB7_27
	b	.LBB7_14
.LBB7_14:                               @   in Loop: Header=BB7_11 Depth=1
	ldr	r0, [sp, #16]           @ 4-byte Reload
	cmp	r0, #115
	beq	.LBB7_16
	b	.LBB7_15
.LBB7_15:                               @   in Loop: Header=BB7_11 Depth=1
	ldr	r0, [sp, #16]           @ 4-byte Reload
	subs	r0, #117
	cmp	r0, #2
	bhi	.LBB7_32
	b	.LBB7_16
.LBB7_16:                               @   in Loop: Header=BB7_11 Depth=1
	.loc	1 0 5                   @ ../MYx/Src/MyFunc_CLI.c:0:5
	add	r0, sp, #32
.Ltmp136:
	.loc	1 212 25 is_stmt 1      @ ../MYx/Src/MyFunc_CLI.c:212:25
	ldrb	r0, [r0]
	cmp	r0, #117
	bne	.LBB7_18
	b	.LBB7_17
.LBB7_17:                               @   in Loop: Header=BB7_11 Depth=1
	.loc	1 0 25 is_stmt 0        @ ../MYx/Src/MyFunc_CLI.c:0:25
	movs	r0, #255
	.loc	1 212 25                @ ../MYx/Src/MyFunc_CLI.c:212:25
	str	r0, [sp, #12]           @ 4-byte Spill
	b	.LBB7_24
.LBB7_18:                               @   in Loop: Header=BB7_11 Depth=1
	.loc	1 0 25                  @ ../MYx/Src/MyFunc_CLI.c:0:25
	add	r0, sp, #32
	.loc	1 213 26 is_stmt 1      @ ../MYx/Src/MyFunc_CLI.c:213:26
	ldrb	r0, [r0]
	cmp	r0, #118
	bne	.LBB7_20
	b	.LBB7_19
.LBB7_19:                               @   in Loop: Header=BB7_11 Depth=1
	.loc	1 0 26 is_stmt 0        @ ../MYx/Src/MyFunc_CLI.c:0:26
	ldr	r0, __arm_cp.7_2
	.loc	1 213 26                @ ../MYx/Src/MyFunc_CLI.c:213:26
	str	r0, [sp, #8]            @ 4-byte Spill
	b	.LBB7_23
.LBB7_20:                               @   in Loop: Header=BB7_11 Depth=1
	.loc	1 0 26                  @ ../MYx/Src/MyFunc_CLI.c:0:26
	add	r0, sp, #32
	.loc	1 214 29 is_stmt 1      @ ../MYx/Src/MyFunc_CLI.c:214:29
	ldrb	r0, [r0]
	movs	r1, #0
	mvns	r1, r1
	movs	r2, #127
	cmp	r0, #115
	str	r1, [sp, #4]            @ 4-byte Spill
	str	r2, [sp]                @ 4-byte Spill
	beq	.LBB7_22
@ %bb.21:                               @   in Loop: Header=BB7_11 Depth=1
	ldr	r0, [sp, #4]            @ 4-byte Reload
	str	r0, [sp]                @ 4-byte Spill
.LBB7_22:                               @   in Loop: Header=BB7_11 Depth=1
	ldr	r0, [sp]                @ 4-byte Reload
	.loc	1 213 26                @ ../MYx/Src/MyFunc_CLI.c:213:26
	str	r0, [sp, #8]            @ 4-byte Spill
	b	.LBB7_23
.LBB7_23:                               @   in Loop: Header=BB7_11 Depth=1
	ldr	r0, [sp, #8]            @ 4-byte Reload
	.loc	1 212 25                @ ../MYx/Src/MyFunc_CLI.c:212:25
	str	r0, [sp, #12]           @ 4-byte Spill
	b	.LBB7_24
.LBB7_24:                               @   in Loop: Header=BB7_11 Depth=1
	ldr	r0, [sp, #12]           @ 4-byte Reload
	.loc	1 212 16 is_stmt 0      @ ../MYx/Src/MyFunc_CLI.c:212:16
	str	r0, [sp, #24]
	add	r0, sp, #36
.Ltmp137:
	.loc	1 215 37 is_stmt 1      @ ../MYx/Src/MyFunc_CLI.c:215:37
	ldrb	r0, [r0]
	movs	r1, #1
	.loc	1 215 11 is_stmt 0      @ ../MYx/Src/MyFunc_CLI.c:215:11
	bl	MyCLI_StringToUnsignedInt
	.loc	1 215 48                @ ../MYx/Src/MyFunc_CLI.c:215:48
	ldr	r1, [sp, #24]
.Ltmp138:
	.loc	1 215 11                @ ../MYx/Src/MyFunc_CLI.c:215:11
	cmp	r0, r1
	bls	.LBB7_26
	b	.LBB7_25
.LBB7_25:                               @   in Loop: Header=BB7_11 Depth=1
.Ltmp139:
	.loc	1 217 28 is_stmt 1      @ ../MYx/Src/MyFunc_CLI.c:217:28
	ldr	r0, __arm_cp.7_1
	movs	r1, #86
	movs	r2, #4
	strb	r2, [r0, r1]
	.loc	1 218 7                 @ ../MYx/Src/MyFunc_CLI.c:218:7
	b	.LBB7_26
.Ltmp140:
.LBB7_26:                               @   in Loop: Header=BB7_11 Depth=1
	.loc	1 219 7                 @ ../MYx/Src/MyFunc_CLI.c:219:7
	b	.LBB7_33
.Ltmp141:
.LBB7_27:                               @   in Loop: Header=BB7_11 Depth=1
	.loc	1 0 7 is_stmt 0         @ ../MYx/Src/MyFunc_CLI.c:0:7
	add	r0, sp, #28
.Ltmp142:
	.loc	1 224 11 is_stmt 1      @ ../MYx/Src/MyFunc_CLI.c:224:11
	ldrb	r0, [r0]
	.loc	1 224 28 is_stmt 0      @ ../MYx/Src/MyFunc_CLI.c:224:28
	cmp	r0, #34
	beq	.LBB7_30
	b	.LBB7_28
.LBB7_28:                               @   in Loop: Header=BB7_11 Depth=1
	.loc	1 0 28                  @ ../MYx/Src/MyFunc_CLI.c:0:28
	add	r0, sp, #28
	.loc	1 224 31                @ ../MYx/Src/MyFunc_CLI.c:224:31
	ldrb	r0, [r0]
.Ltmp143:
	.loc	1 224 11                @ ../MYx/Src/MyFunc_CLI.c:224:11
	cmp	r0, #123
	beq	.LBB7_30
	b	.LBB7_29
.LBB7_29:                               @   in Loop: Header=BB7_11 Depth=1
.Ltmp144:
	.loc	1 226 28 is_stmt 1      @ ../MYx/Src/MyFunc_CLI.c:226:28
	ldr	r0, __arm_cp.7_1
	movs	r1, #86
	movs	r2, #5
	strb	r2, [r0, r1]
	.loc	1 227 7                 @ ../MYx/Src/MyFunc_CLI.c:227:7
	b	.LBB7_30
.Ltmp145:
.LBB7_30:                               @   in Loop: Header=BB7_11 Depth=1
	.loc	1 228 7                 @ ../MYx/Src/MyFunc_CLI.c:228:7
	b	.LBB7_33
.LBB7_31:                               @   in Loop: Header=BB7_11 Depth=1
	.loc	1 231 26                @ ../MYx/Src/MyFunc_CLI.c:231:26
	ldr	r0, __arm_cp.7_1
	movs	r1, #86
	movs	r2, #3
	strb	r2, [r0, r1]
	.loc	1 232 7                 @ ../MYx/Src/MyFunc_CLI.c:232:7
	b	.LBB7_33
.LBB7_32:                               @   in Loop: Header=BB7_11 Depth=1
	.loc	1 235 26                @ ../MYx/Src/MyFunc_CLI.c:235:26
	ldr	r0, __arm_cp.7_1
	movs	r1, #86
	movs	r2, #7
	strb	r2, [r0, r1]
	.loc	1 236 7                 @ ../MYx/Src/MyFunc_CLI.c:236:7
	b	.LBB7_33
.Ltmp146:
.LBB7_33:                               @   in Loop: Header=BB7_11 Depth=1
	.loc	1 239 22                @ ../MYx/Src/MyFunc_CLI.c:239:22
	ldr	r0, __arm_cp.7_1
	movs	r1, #86
	ldrb	r0, [r0, r1]
.Ltmp147:
	.loc	1 239 9 is_stmt 0       @ ../MYx/Src/MyFunc_CLI.c:239:9
	cmp	r0, #0
	beq	.LBB7_35
	b	.LBB7_34
.LBB7_34:
.Ltmp148:
	.loc	1 240 7 is_stmt 1       @ ../MYx/Src/MyFunc_CLI.c:240:7
	b	.LBB7_40
.Ltmp149:
.LBB7_35:                               @   in Loop: Header=BB7_11 Depth=1
	.loc	1 242 3                 @ ../MYx/Src/MyFunc_CLI.c:242:3
	b	.LBB7_36
.Ltmp150:
.LBB7_36:                               @   in Loop: Header=BB7_11 Depth=1
	.loc	1 200 58                @ ../MYx/Src/MyFunc_CLI.c:200:58
	ldr	r0, [sp, #40]
	adds	r0, r0, #1
	add	r1, sp, #40
	strb	r0, [r1]
	.loc	1 200 63 is_stmt 0      @ ../MYx/Src/MyFunc_CLI.c:200:63
	ldr	r0, [sp, #36]
	adds	r0, r0, #1
	add	r1, sp, #36
	strb	r0, [r1]
	.loc	1 200 3                 @ ../MYx/Src/MyFunc_CLI.c:200:3
	b	.LBB7_11
.Ltmp151:
.LBB7_37:
	.loc	1 244 12 is_stmt 1      @ ../MYx/Src/MyFunc_CLI.c:244:12
	ldr	r0, [sp, #44]
	.loc	1 244 27 is_stmt 0      @ ../MYx/Src/MyFunc_CLI.c:244:27
	ldr	r0, [r0, #8]
	.loc	1 244 54                @ ../MYx/Src/MyFunc_CLI.c:244:54
	ldr	r1, __arm_cp.7_1
	movs	r2, #83
	ldrb	r2, [r1, r2]
	movs	r3, #88
	.loc	1 245 56 is_stmt 1      @ ../MYx/Src/MyFunc_CLI.c:245:56
	ldrb	r1, [r1, r3]
	.loc	1 245 41 is_stmt 0      @ ../MYx/Src/MyFunc_CLI.c:245:41
	subs	r1, r2, r1
	.loc	1 244 12 is_stmt 1      @ ../MYx/Src/MyFunc_CLI.c:244:12
	ldrb	r0, [r0, r1]
.Ltmp152:
	.loc	1 244 7 is_stmt 0       @ ../MYx/Src/MyFunc_CLI.c:244:7
	cmp	r0, #0
	beq	.LBB7_39
	b	.LBB7_38
.LBB7_38:
.Ltmp153:
	.loc	1 246 24 is_stmt 1      @ ../MYx/Src/MyFunc_CLI.c:246:24
	ldr	r0, __arm_cp.7_1
	movs	r1, #86
	movs	r2, #3
	strb	r2, [r0, r1]
	.loc	1 247 3                 @ ../MYx/Src/MyFunc_CLI.c:247:3
	b	.LBB7_39
.Ltmp154:
.LBB7_39:
	.loc	1 245 65                @ ../MYx/Src/MyFunc_CLI.c:245:65
	b	.LBB7_40
.Ltmp155:
.LBB7_40:
	@DEBUG_LABEL: MyCLI_CallCommandAction:kickout
	.loc	1 251 20                @ ../MYx/Src/MyFunc_CLI.c:251:20
	ldr	r0, __arm_cp.7_1
	movs	r1, #86
	ldrb	r0, [r0, r1]
.Ltmp156:
	.loc	1 251 7 is_stmt 0       @ ../MYx/Src/MyFunc_CLI.c:251:7
	cmp	r0, #0
	bne	.LBB7_42
	b	.LBB7_41
.LBB7_41:
.Ltmp157:
	.loc	1 252 5 is_stmt 1       @ ../MYx/Src/MyFunc_CLI.c:252:5
	ldr	r0, [sp, #44]
	.loc	1 252 20 is_stmt 0      @ ../MYx/Src/MyFunc_CLI.c:252:20
	ldr	r0, [r0, #4]
	.loc	1 252 5                 @ ../MYx/Src/MyFunc_CLI.c:252:5
	blx	r0
	.loc	1 253 24 is_stmt 1      @ ../MYx/Src/MyFunc_CLI.c:253:24
	ldr	r0, [sp, #44]
	.loc	1 253 22 is_stmt 0      @ ../MYx/Src/MyFunc_CLI.c:253:22
	ldr	r1, __arm_cp.7_3
	str	r0, [r1]
	.loc	1 254 3 is_stmt 1       @ ../MYx/Src/MyFunc_CLI.c:254:3
	b	.LBB7_43
.Ltmp158:
.LBB7_42:
	.loc	1 255 43                @ ../MYx/Src/MyFunc_CLI.c:255:43
	ldr	r0, __arm_cp.7_1
	movs	r1, #86
	ldrb	r0, [r0, r1]
	.loc	1 255 4 is_stmt 0       @ ../MYx/Src/MyFunc_CLI.c:255:4
	bl	MyCLI_CommandErrorHandler
	b	.LBB7_43
.Ltmp159:
.LBB7_43:
	.loc	1 251 29 is_stmt 1      @ ../MYx/Src/MyFunc_CLI.c:251:29
	b	.LBB7_44
.Ltmp160:
.LBB7_44:
	@DEBUG_LABEL: MyCLI_CallCommandAction:kickout2
	.loc	1 260 2                 @ ../MYx/Src/MyFunc_CLI.c:260:2
	bl	MyCLI_CommandReaderInit
	.loc	1 261 1                 @ ../MYx/Src/MyFunc_CLI.c:261:1
	add	sp, #48
	pop	{r7, pc}
.Ltmp161:
	.p2align	2
@ %bb.45:
	.loc	1 0 1 is_stmt 0         @ ../MYx/Src/MyFunc_CLI.c:0:1
__arm_cp.7_0:
	.long	CommandTable
.Lcpi_end6:
	.size	__arm_cp.7_0, .Lcpi_end6-__arm_cp.7_0
__arm_cp.7_1:
	.long	commandState
.Lcpi_end7:
	.size	__arm_cp.7_1, .Lcpi_end7-__arm_cp.7_1
__arm_cp.7_2:
	.long	65535                   @ 0xffff
.Lcpi_end8:
	.size	__arm_cp.7_2, .Lcpi_end8-__arm_cp.7_2
__arm_cp.7_3:
	.long	extCommandFinger
.Lcpi_end9:
	.size	__arm_cp.7_3, .Lcpi_end9-__arm_cp.7_3
.Lfunc_end7:
	.size	MyCLI_CallCommandAction, .Lfunc_end7-MyCLI_CallCommandAction
	.cfi_endproc
	.cantunwind
	.fnend
                                        @ -- End function
	.hidden	MyCLI_ProcessCmdInput   @ -- Begin function MyCLI_ProcessCmdInput
	.globl	MyCLI_ProcessCmdInput
	.p2align	2
	.type	MyCLI_ProcessCmdInput,%function
	.code	16                      @ @MyCLI_ProcessCmdInput
	.thumb_func
MyCLI_ProcessCmdInput:
.Lfunc_begin8:
	.loc	1 452 0 is_stmt 1       @ ../MYx/Src/MyFunc_CLI.c:452:0
	.fnstart
	.cfi_startproc
@ %bb.0:
	.save	{r7, lr}
	push	{r7, lr}
	.cfi_def_cfa_offset 8
	.cfi_offset lr, -4
	.cfi_offset r7, -8
	.pad	#16
	sub	sp, #16
	.cfi_def_cfa_offset 24
.Ltmp162:
	.loc	1 456 7 prologue_end    @ ../MYx/Src/MyFunc_CLI.c:456:7
	ldr	r0, __arm_cp.8_0
	ldrb	r0, [r0]
.Ltmp163:
	.loc	1 456 7 is_stmt 0       @ ../MYx/Src/MyFunc_CLI.c:456:7
	cmp	r0, #0
	beq	.LBB8_11
	b	.LBB8_1
.LBB8_1:
.Ltmp164:
	.loc	1 460 6 is_stmt 1       @ ../MYx/Src/MyFunc_CLI.c:460:6
	bl	MyUART_GetCMDStatus
.Ltmp165:
	.loc	1 460 6 is_stmt 0       @ ../MYx/Src/MyFunc_CLI.c:460:6
	cmp	r0, #2
	beq	.LBB8_3
	b	.LBB8_2
.LBB8_2:
	.loc	1 0 6                   @ ../MYx/Src/MyFunc_CLI.c:0:6
	add	r0, sp, #12
	movs	r1, #0
.Ltmp166:
	.loc	1 462 7 is_stmt 1       @ ../MYx/Src/MyFunc_CLI.c:462:7
	strb	r1, [r0]
	b	.LBB8_12
.Ltmp167:
.LBB8_3:
	.loc	1 465 3                 @ ../MYx/Src/MyFunc_CLI.c:465:3
	ldr	r0, __arm_cp.8_1
	bl	MyUART_GetCMD
	b	.LBB8_4
.Ltmp168:
.LBB8_4:
	.loc	1 467 8                 @ ../MYx/Src/MyFunc_CLI.c:467:8
	ldr	r0, __arm_cp.8_2
	movs	r1, #0
	strh	r1, [r0]
	.loc	1 469 5                 @ ../MYx/Src/MyFunc_CLI.c:469:5
	b	.LBB8_5
.LBB8_5:                                @ =>This Inner Loop Header: Depth=1
	.loc	1 469 17 is_stmt 0      @ ../MYx/Src/MyFunc_CLI.c:469:17
	ldr	r0, __arm_cp.8_2
	ldrh	r0, [r0]
	.loc	1 469 12                @ ../MYx/Src/MyFunc_CLI.c:469:12
	ldr	r1, __arm_cp.8_1
	ldrb	r0, [r1, r0]
	movs	r1, #0
	.loc	1 469 29                @ ../MYx/Src/MyFunc_CLI.c:469:29
	cmp	r0, #10
	str	r1, [sp, #8]            @ 4-byte Spill
	beq	.LBB8_8
	b	.LBB8_6
.LBB8_6:                                @   in Loop: Header=BB8_5 Depth=1
	.loc	1 469 38                @ ../MYx/Src/MyFunc_CLI.c:469:38
	ldr	r0, __arm_cp.8_2
	ldrh	r0, [r0]
	.loc	1 469 33                @ ../MYx/Src/MyFunc_CLI.c:469:33
	ldr	r1, __arm_cp.8_1
	ldrb	r0, [r1, r0]
	movs	r1, #0
	.loc	1 469 51                @ ../MYx/Src/MyFunc_CLI.c:469:51
	cmp	r0, #13
	str	r1, [sp, #8]            @ 4-byte Spill
	beq	.LBB8_8
	b	.LBB8_7
.LBB8_7:                                @   in Loop: Header=BB8_5 Depth=1
	.loc	1 469 60                @ ../MYx/Src/MyFunc_CLI.c:469:60
	ldr	r0, __arm_cp.8_2
	ldrh	r0, [r0]
	.loc	1 469 55                @ ../MYx/Src/MyFunc_CLI.c:469:55
	ldr	r1, __arm_cp.8_1
	ldrb	r0, [r1, r0]
	.loc	1 469 64                @ ../MYx/Src/MyFunc_CLI.c:469:64
	subs	r1, r0, #1
	sbcs	r0, r1
	str	r0, [sp, #8]            @ 4-byte Spill
	b	.LBB8_8
.LBB8_8:                                @   in Loop: Header=BB8_5 Depth=1
	.loc	1 0 0                   @ ../MYx/Src/MyFunc_CLI.c:0:0
	ldr	r0, [sp, #8]            @ 4-byte Reload
	.loc	1 469 5                 @ ../MYx/Src/MyFunc_CLI.c:469:5
	lsls	r0, r0, #31
	cmp	r0, #0
	beq	.LBB8_10
	b	.LBB8_9
.LBB8_9:                                @   in Loop: Header=BB8_5 Depth=1
.Ltmp169:
	.loc	1 471 10 is_stmt 1      @ ../MYx/Src/MyFunc_CLI.c:471:10
	ldr	r0, __arm_cp.8_2
	ldrh	r1, [r0]
	adds	r1, r1, #1
	strh	r1, [r0]
.Ltmp170:
	.loc	1 469 5                 @ ../MYx/Src/MyFunc_CLI.c:469:5
	b	.LBB8_5
.LBB8_10:
	.loc	1 473 14                @ ../MYx/Src/MyFunc_CLI.c:473:14
	ldr	r0, __arm_cp.8_2
	ldrh	r1, [r0]
	adds	r2, r1, #1
	strh	r2, [r0]
	.loc	1 473 5 is_stmt 0       @ ../MYx/Src/MyFunc_CLI.c:473:5
	ldr	r2, __arm_cp.8_1
	movs	r3, #13
	.loc	1 473 18                @ ../MYx/Src/MyFunc_CLI.c:473:18
	strb	r3, [r2, r1]
	.loc	1 474 14 is_stmt 1      @ ../MYx/Src/MyFunc_CLI.c:474:14
	ldrh	r1, [r0]
	adds	r3, r1, #1
	strh	r3, [r0]
	movs	r3, #10
	.loc	1 474 18 is_stmt 0      @ ../MYx/Src/MyFunc_CLI.c:474:18
	strb	r3, [r2, r1]
	.loc	1 477 45 is_stmt 1      @ ../MYx/Src/MyFunc_CLI.c:477:45
	ldrb	r1, [r0]
	.loc	1 477 12 is_stmt 0      @ ../MYx/Src/MyFunc_CLI.c:477:12
	mov	r0, r2
	bl	MyCLI_ProcessCommandString
	add	r1, sp, #12
	.loc	1 477 5                 @ ../MYx/Src/MyFunc_CLI.c:477:5
	strb	r0, [r1]
	b	.LBB8_12
.Ltmp171:
.LBB8_11:
	.loc	1 0 5                   @ ../MYx/Src/MyFunc_CLI.c:0:5
	movs	r0, #0
.Ltmp172:
	.loc	1 491 12 is_stmt 1      @ ../MYx/Src/MyFunc_CLI.c:491:12
	str	r0, [sp, #4]            @ 4-byte Spill
	ldr	r1, [sp, #4]            @ 4-byte Reload
	bl	MyCLI_ProcessCommandString
	add	r1, sp, #12
	.loc	1 491 5 is_stmt 0       @ ../MYx/Src/MyFunc_CLI.c:491:5
	strb	r0, [r1]
	b	.LBB8_12
.Ltmp173:
.LBB8_12:
	.loc	1 0 5                   @ ../MYx/Src/MyFunc_CLI.c:0:5
	add	r0, sp, #12
	.loc	1 493 1 is_stmt 1       @ ../MYx/Src/MyFunc_CLI.c:493:1
	ldrb	r0, [r0]
	add	sp, #16
	pop	{r7, pc}
.Ltmp174:
	.p2align	2
@ %bb.13:
	.loc	1 0 1 is_stmt 0         @ ../MYx/Src/MyFunc_CLI.c:0:1
__arm_cp.8_0:
	.long	interactive
.Lcpi_end10:
	.size	__arm_cp.8_0, .Lcpi_end10-__arm_cp.8_0
__arm_cp.8_1:
	.long	MyCLI_ProcessCmdInput.buff
.Lcpi_end11:
	.size	__arm_cp.8_1, .Lcpi_end11-__arm_cp.8_1
__arm_cp.8_2:
	.long	MyCLI_ProcessCmdInput.len
.Lcpi_end12:
	.size	__arm_cp.8_2, .Lcpi_end12-__arm_cp.8_2
.Lfunc_end8:
	.size	MyCLI_ProcessCmdInput, .Lfunc_end8-MyCLI_ProcessCmdInput
	.cfi_endproc
	.cantunwind
	.fnend
                                        @ -- End function
	.hidden	MyCLI_UpdateCMD         @ -- Begin function MyCLI_UpdateCMD
	.globl	MyCLI_UpdateCMD
	.p2align	2
	.type	MyCLI_UpdateCMD,%function
	.code	16                      @ @MyCLI_UpdateCMD
	.thumb_func
MyCLI_UpdateCMD:
.Lfunc_begin9:
	.loc	1 496 0 is_stmt 1       @ ../MYx/Src/MyFunc_CLI.c:496:0
	.fnstart
	.cfi_startproc
@ %bb.0:
	.save	{r7, lr}
	push	{r7, lr}
	.cfi_def_cfa_offset 8
	.cfi_offset lr, -4
	.cfi_offset r7, -8
	.pad	#8
	sub	sp, #8
	.cfi_def_cfa_offset 16
	str	r0, [sp, #4]
.Ltmp175:
	.loc	1 497 6 prologue_end    @ ../MYx/Src/MyFunc_CLI.c:497:6
	ldr	r0, __arm_cp.9_0
	ldrb	r0, [r0]
.Ltmp176:
	.loc	1 497 6 is_stmt 0       @ ../MYx/Src/MyFunc_CLI.c:497:6
	cmp	r0, #0
	bne	.LBB9_2
	b	.LBB9_1
.LBB9_1:
.Ltmp177:
	.loc	1 499 14 is_stmt 1      @ ../MYx/Src/MyFunc_CLI.c:499:14
	ldr	r1, [sp, #4]
	.loc	1 499 3 is_stmt 0       @ ../MYx/Src/MyFunc_CLI.c:499:3
	ldr	r0, __arm_cp.9_2
	bl	strcpy
	.loc	1 501 14 is_stmt 1      @ ../MYx/Src/MyFunc_CLI.c:501:14
	ldr	r1, __arm_cp.9_0
	movs	r2, #1
	strb	r2, [r1]
	.loc	1 502 2                 @ ../MYx/Src/MyFunc_CLI.c:502:2
	b	.LBB9_3
.Ltmp178:
.LBB9_2:
	.loc	1 504 3                 @ ../MYx/Src/MyFunc_CLI.c:504:3
	ldr	r0, __arm_cp.9_1
	bl	My_printf
	b	.LBB9_3
.Ltmp179:
.LBB9_3:
	.loc	1 505 1                 @ ../MYx/Src/MyFunc_CLI.c:505:1
	add	sp, #8
	pop	{r7, pc}
.Ltmp180:
	.p2align	2
@ %bb.4:
	.loc	1 0 1 is_stmt 0         @ ../MYx/Src/MyFunc_CLI.c:0:1
__arm_cp.9_0:
	.long	CMD_Status
.Lcpi_end13:
	.size	__arm_cp.9_0, .Lcpi_end13-__arm_cp.9_0
__arm_cp.9_1:
	.long	.L.str.8
.Lcpi_end14:
	.size	__arm_cp.9_1, .Lcpi_end14-__arm_cp.9_1
__arm_cp.9_2:
	.long	CMD
.Lcpi_end15:
	.size	__arm_cp.9_2, .Lcpi_end15-__arm_cp.9_2
.Lfunc_end9:
	.size	MyCLI_UpdateCMD, .Lfunc_end9-MyCLI_UpdateCMD
	.cfi_endproc
	.cantunwind
	.fnend
                                        @ -- End function
	.hidden	MyCLI_SetStatus         @ -- Begin function MyCLI_SetStatus
	.globl	MyCLI_SetStatus
	.p2align	2
	.type	MyCLI_SetStatus,%function
	.code	16                      @ @MyCLI_SetStatus
	.thumb_func
MyCLI_SetStatus:
.Lfunc_begin10:
	.loc	1 525 0 is_stmt 1       @ ../MYx/Src/MyFunc_CLI.c:525:0
	.fnstart
	.cfi_startproc
@ %bb.0:
	.pad	#4
	sub	sp, #4
	.cfi_def_cfa_offset 4
	mov	r1, r0
	mov	r2, sp
	strb	r0, [r2]
.Ltmp181:
	.loc	1 526 15 prologue_end   @ ../MYx/Src/MyFunc_CLI.c:526:15
	ldr	r0, [sp]
	.loc	1 526 13 is_stmt 0      @ ../MYx/Src/MyFunc_CLI.c:526:13
	ldr	r2, __arm_cp.10_0
	strb	r0, [r2]
	.loc	1 527 1 is_stmt 1       @ ../MYx/Src/MyFunc_CLI.c:527:1
	add	sp, #4
	bx	lr
.Ltmp182:
	.p2align	2
@ %bb.1:
	.loc	1 0 1 is_stmt 0         @ ../MYx/Src/MyFunc_CLI.c:0:1
__arm_cp.10_0:
	.long	CMD_Status
.Lcpi_end16:
	.size	__arm_cp.10_0, .Lcpi_end16-__arm_cp.10_0
.Lfunc_end10:
	.size	MyCLI_SetStatus, .Lfunc_end10-MyCLI_SetStatus
	.cfi_endproc
	.cantunwind
	.fnend
                                        @ -- End function
	.p2align	1               @ -- Begin function MyCLI_CommandLookup
	.type	MyCLI_CommandLookup,%function
	.code	16                      @ @MyCLI_CommandLookup
	.thumb_func
MyCLI_CommandLookup:
.Lfunc_begin11:
	.loc	1 103 0 is_stmt 1       @ ../MYx/Src/MyFunc_CLI.c:103:0
	.fnstart
	.cfi_startproc
@ %bb.0:
	.save	{r7, lr}
	push	{r7, lr}
	.cfi_def_cfa_offset 8
	.cfi_offset lr, -4
	.cfi_offset r7, -8
	.pad	#48
	sub	sp, #48
	.cfi_def_cfa_offset 56
	mov	r2, r1
	str	r0, [sp, #40]
	add	r0, sp, #36
	strb	r1, [r0]
.Ltmp183:
	.loc	1 104 41 prologue_end   @ ../MYx/Src/MyFunc_CLI.c:104:41
	ldrb	r1, [r0]
	sxtb	r1, r1
	.loc	1 104 22 is_stmt 0      @ ../MYx/Src/MyFunc_CLI.c:104:22
	str	r0, [sp, #12]           @ 4-byte Spill
	mov	r0, r1
	str	r2, [sp, #8]            @ 4-byte Spill
	bl	MyCLI_tokenPointer
	.loc	1 104 12                @ ../MYx/Src/MyFunc_CLI.c:104:12
	str	r0, [sp, #32]
	.loc	1 105 38 is_stmt 1      @ ../MYx/Src/MyFunc_CLI.c:105:38
	ldr	r0, [sp, #12]           @ 4-byte Reload
	ldrb	r0, [r0]
	.loc	1 105 20 is_stmt 0      @ ../MYx/Src/MyFunc_CLI.c:105:20
	bl	MyCLI_tokenLength
	add	r1, sp, #28
	.loc	1 105 11                @ ../MYx/Src/MyFunc_CLI.c:105:11
	strb	r0, [r1]
	add	r0, sp, #24
	movs	r1, #0
.Ltmp184:
	.loc	1 107 10 is_stmt 1      @ ../MYx/Src/MyFunc_CLI.c:107:10
	strb	r1, [r0]
	.loc	1 107 8 is_stmt 0       @ ../MYx/Src/MyFunc_CLI.c:107:8
	b	.LBB11_1
.LBB11_1:                               @ =>This Loop Header: Depth=1
                                        @     Child Loop BB11_3 Depth 2
.Ltmp185:
	.loc	1 108 8 is_stmt 1       @ ../MYx/Src/MyFunc_CLI.c:108:8
	ldr	r0, [sp, #40]
	.loc	1 108 23 is_stmt 0      @ ../MYx/Src/MyFunc_CLI.c:108:23
	ldr	r0, [r0, #4]
.Ltmp186:
	.loc	1 107 3 is_stmt 1       @ ../MYx/Src/MyFunc_CLI.c:107:3
	cmp	r0, #0
	beq	.LBB11_14
	b	.LBB11_2
.LBB11_2:                               @   in Loop: Header=BB11_1 Depth=1
.Ltmp187:
	.loc	1 110 25                @ ../MYx/Src/MyFunc_CLI.c:110:25
	ldr	r0, [sp, #40]
	.loc	1 110 40 is_stmt 0      @ ../MYx/Src/MyFunc_CLI.c:110:40
	ldr	r0, [r0]
	.loc	1 110 18                @ ../MYx/Src/MyFunc_CLI.c:110:18
	str	r0, [sp, #20]
	.loc	1 111 23 is_stmt 1      @ ../MYx/Src/MyFunc_CLI.c:111:23
	ldr	r0, [sp, #32]
	.loc	1 111 14 is_stmt 0      @ ../MYx/Src/MyFunc_CLI.c:111:14
	str	r0, [sp, #16]
	.loc	1 112 5 is_stmt 1       @ ../MYx/Src/MyFunc_CLI.c:112:5
	b	.LBB11_3
.LBB11_3:                               @   Parent Loop BB11_1 Depth=1
                                        @ =>  This Inner Loop Header: Depth=2
.Ltmp188:
	.loc	1 113 11                @ ../MYx/Src/MyFunc_CLI.c:113:11
	ldr	r0, [sp, #16]
	.loc	1 113 20 is_stmt 0      @ ../MYx/Src/MyFunc_CLI.c:113:20
	ldr	r1, [sp, #32]
	.loc	1 113 18                @ ../MYx/Src/MyFunc_CLI.c:113:18
	subs	r0, r0, r1
	add	r1, sp, #28
	.loc	1 113 31                @ ../MYx/Src/MyFunc_CLI.c:113:31
	ldrb	r1, [r1]
.Ltmp189:
	.loc	1 113 11                @ ../MYx/Src/MyFunc_CLI.c:113:11
	cmp	r0, r1
	bne	.LBB11_7
	b	.LBB11_4
.LBB11_4:                               @   in Loop: Header=BB11_1 Depth=1
.Ltmp190:
	.loc	1 114 14 is_stmt 1      @ ../MYx/Src/MyFunc_CLI.c:114:14
	ldr	r0, [sp, #20]
	.loc	1 114 13 is_stmt 0      @ ../MYx/Src/MyFunc_CLI.c:114:13
	ldrb	r0, [r0]
.Ltmp191:
	.loc	1 114 13                @ ../MYx/Src/MyFunc_CLI.c:114:13
	cmp	r0, #0
	bne	.LBB11_6
	b	.LBB11_5
.LBB11_5:
.Ltmp192:
	.loc	1 115 18 is_stmt 1      @ ../MYx/Src/MyFunc_CLI.c:115:18
	ldr	r0, [sp, #40]
	.loc	1 115 11 is_stmt 0      @ ../MYx/Src/MyFunc_CLI.c:115:11
	str	r0, [sp, #44]
	b	.LBB11_15
.Ltmp193:
.LBB11_6:                               @   in Loop: Header=BB11_1 Depth=1
	.loc	1 117 11 is_stmt 1      @ ../MYx/Src/MyFunc_CLI.c:117:11
	b	.LBB11_12
.Ltmp194:
.LBB11_7:                               @   in Loop: Header=BB11_3 Depth=2
	.loc	1 119 35                @ ../MYx/Src/MyFunc_CLI.c:119:35
	ldr	r0, [sp, #16]
	.loc	1 119 34 is_stmt 0      @ ../MYx/Src/MyFunc_CLI.c:119:34
	ldrb	r0, [r0]
	.loc	1 119 18                @ ../MYx/Src/MyFunc_CLI.c:119:18
	bl	My_CharDowncase
	.loc	1 119 63                @ ../MYx/Src/MyFunc_CLI.c:119:63
	ldr	r1, [sp, #20]
	.loc	1 119 62                @ ../MYx/Src/MyFunc_CLI.c:119:62
	ldrb	r1, [r1]
	.loc	1 119 46                @ ../MYx/Src/MyFunc_CLI.c:119:46
	str	r0, [sp, #4]            @ 4-byte Spill
	mov	r0, r1
	bl	My_CharDowncase
.Ltmp195:
	.loc	1 119 18                @ ../MYx/Src/MyFunc_CLI.c:119:18
	ldr	r1, [sp, #4]            @ 4-byte Reload
	cmp	r1, r0
	beq	.LBB11_9
	b	.LBB11_8
.LBB11_8:                               @   in Loop: Header=BB11_1 Depth=1
.Ltmp196:
	.loc	1 120 9 is_stmt 1       @ ../MYx/Src/MyFunc_CLI.c:120:9
	b	.LBB11_12
.Ltmp197:
.LBB11_9:                               @   in Loop: Header=BB11_3 Depth=2
	.loc	1 0 9 is_stmt 0         @ ../MYx/Src/MyFunc_CLI.c:0:9
	b	.LBB11_10
.LBB11_10:                              @   in Loop: Header=BB11_3 Depth=2
	.loc	1 122 5 is_stmt 1       @ ../MYx/Src/MyFunc_CLI.c:122:5
	b	.LBB11_11
.Ltmp198:
.LBB11_11:                              @   in Loop: Header=BB11_3 Depth=2
	.loc	1 112 17                @ ../MYx/Src/MyFunc_CLI.c:112:17
	ldr	r0, [sp, #20]
	adds	r0, r0, #1
	str	r0, [sp, #20]
	.loc	1 112 27 is_stmt 0      @ ../MYx/Src/MyFunc_CLI.c:112:27
	ldr	r0, [sp, #16]
	adds	r0, r0, #1
	str	r0, [sp, #16]
	.loc	1 112 5                 @ ../MYx/Src/MyFunc_CLI.c:112:5
	b	.LBB11_3
.Ltmp199:
.LBB11_12:                              @   in Loop: Header=BB11_1 Depth=1
	.loc	1 123 3 is_stmt 1       @ ../MYx/Src/MyFunc_CLI.c:123:3
	b	.LBB11_13
.Ltmp200:
.LBB11_13:                              @   in Loop: Header=BB11_1 Depth=1
	.loc	1 109 9                 @ ../MYx/Src/MyFunc_CLI.c:109:9
	ldr	r0, [sp, #24]
	adds	r0, r0, #1
	add	r1, sp, #24
	strb	r0, [r1]
	.loc	1 109 26 is_stmt 0      @ ../MYx/Src/MyFunc_CLI.c:109:26
	ldr	r0, [sp, #40]
	adds	r0, #16
	str	r0, [sp, #40]
	.loc	1 107 3 is_stmt 1       @ ../MYx/Src/MyFunc_CLI.c:107:3
	b	.LBB11_1
.Ltmp201:
.LBB11_14:
	.loc	1 0 3 is_stmt 0         @ ../MYx/Src/MyFunc_CLI.c:0:3
	movs	r0, #0
	.loc	1 124 3 is_stmt 1       @ ../MYx/Src/MyFunc_CLI.c:124:3
	str	r0, [sp, #44]
	b	.LBB11_15
.LBB11_15:
	.loc	1 125 1                 @ ../MYx/Src/MyFunc_CLI.c:125:1
	ldr	r0, [sp, #44]
	add	sp, #48
	pop	{r7, pc}
.Ltmp202:
.Lfunc_end11:
	.size	MyCLI_CommandLookup, .Lfunc_end11-MyCLI_CommandLookup
	.cfi_endproc
	.cantunwind
	.fnend
                                        @ -- End function
	.p2align	2               @ -- Begin function MyCLI_FirstByteOfArg
	.type	MyCLI_FirstByteOfArg,%function
	.code	16                      @ @MyCLI_FirstByteOfArg
	.thumb_func
MyCLI_FirstByteOfArg:
.Lfunc_begin12:
	.loc	1 57 0                  @ ../MYx/Src/MyFunc_CLI.c:57:0
	.fnstart
	.cfi_startproc
@ %bb.0:
	.pad	#8
	sub	sp, #8
	.cfi_def_cfa_offset 8
	mov	r1, r0
	add	r2, sp, #4
	strb	r0, [r2]
.Ltmp203:
	.loc	1 58 22 prologue_end    @ ../MYx/Src/MyFunc_CLI.c:58:22
	ldr	r0, [sp, #4]
	.loc	1 58 44 is_stmt 0       @ ../MYx/Src/MyFunc_CLI.c:58:44
	ldr	r2, __arm_cp.12_0
	movs	r3, #88
	.loc	1 58 31                 @ ../MYx/Src/MyFunc_CLI.c:58:31
	ldrb	r3, [r2, r3]
	.loc	1 58 29                 @ ../MYx/Src/MyFunc_CLI.c:58:29
	adds	r0, r0, r3
	mov	r3, sp
	.loc	1 58 11                 @ ../MYx/Src/MyFunc_CLI.c:58:11
	strb	r0, [r3]
	.loc	1 59 56 is_stmt 1       @ ../MYx/Src/MyFunc_CLI.c:59:56
	ldrb	r0, [r3]
	.loc	1 59 30 is_stmt 0       @ ../MYx/Src/MyFunc_CLI.c:59:30
	adds	r0, r2, r0
	movs	r3, #65
	ldrb	r0, [r0, r3]
	.loc	1 59 10                 @ ../MYx/Src/MyFunc_CLI.c:59:10
	adds	r0, r2, r0
	ldrb	r0, [r0, #1]
	.loc	1 59 3                  @ ../MYx/Src/MyFunc_CLI.c:59:3
	add	sp, #8
	bx	lr
.Ltmp204:
	.p2align	2
@ %bb.1:
	.loc	1 0 3                   @ ../MYx/Src/MyFunc_CLI.c:0:3
__arm_cp.12_0:
	.long	commandState
.Lcpi_end17:
	.size	__arm_cp.12_0, .Lcpi_end17-__arm_cp.12_0
.Lfunc_end12:
	.size	MyCLI_FirstByteOfArg, .Lfunc_end12-MyCLI_FirstByteOfArg
	.cfi_endproc
	.cantunwind
	.fnend
                                        @ -- End function
	.hidden	commandState            @ @commandState
	.type	commandState,%object
	.section	.bss.commandState,"aw",%nobits
	.globl	commandState
	.p2align	1
commandState:
.LcommandState$local:
	.zero	90
	.size	commandState, 90

	.type	.L.str,%object          @ @.str
	.section	.rodata.str1.1,"aMS",%progbits,1
.L.str:
	.asciz	"no error"
	.size	.L.str, 9

	.type	.L.str.1,%object        @ @.str.1
.L.str.1:
	.asciz	"serial port error"
	.size	.L.str.1, 18

	.type	.L.str.2,%object        @ @.str.2
.L.str.2:
	.asciz	"no such command"
	.size	.L.str.2, 16

	.type	.L.str.3,%object        @ @.str.3
.L.str.3:
	.asciz	"wrong number of arguments"
	.size	.L.str.3, 26

	.type	.L.str.4,%object        @ @.str.4
.L.str.4:
	.asciz	"integer argument out of range"
	.size	.L.str.4, 30

	.type	.L.str.5,%object        @ @.str.5
.L.str.5:
	.asciz	"argument syntax error"
	.size	.L.str.5, 22

	.type	.L.str.6,%object        @ @.str.6
.L.str.6:
	.asciz	"string too long"
	.size	.L.str.6, 16

	.type	.L.str.7,%object        @ @.str.7
.L.str.7:
	.asciz	"invalid argument type"
	.size	.L.str.7, 22

	.hidden	CommandErrorNames       @ @CommandErrorNames
	.type	CommandErrorNames,%object
	.section	.data.CommandErrorNames,"aw",%progbits
	.globl	CommandErrorNames
	.p2align	2
CommandErrorNames:
.LCommandErrorNames$local:
	.long	.L.str
	.long	.L.str.1
	.long	.L.str.2
	.long	.L.str.3
	.long	.L.str.4
	.long	.L.str.5
	.long	.L.str.6
	.long	.L.str.7
	.size	CommandErrorNames, 32

	.type	MyCLI_ProcessCmdInput.buff,%object @ @MyCLI_ProcessCmdInput.buff
	.section	.bss.MyCLI_ProcessCmdInput.buff,"aw",%nobits
MyCLI_ProcessCmdInput.buff:
	.zero	64
	.size	MyCLI_ProcessCmdInput.buff, 64

	.type	MyCLI_ProcessCmdInput.len,%object @ @MyCLI_ProcessCmdInput.len
	.section	.bss.MyCLI_ProcessCmdInput.len,"aw",%nobits
	.p2align	1
MyCLI_ProcessCmdInput.len:
	.short	0                       @ 0x0
	.size	MyCLI_ProcessCmdInput.len, 2

	.type	interactive,%object     @ @interactive
	.section	.data.interactive,"aw",%progbits
interactive:
	.byte	1                       @ 0x1
	.size	interactive, 1

	.type	CMD_Status,%object      @ @CMD_Status
	.section	.bss.CMD_Status,"aw",%nobits
CMD_Status:
	.byte	0                       @ 0x0
	.size	CMD_Status, 1

	.type	CMD,%object             @ @CMD
	.section	.bss.CMD,"aw",%nobits
CMD:
	.zero	64
	.size	CMD, 64

	.type	.L.str.8,%object        @ @.str.8
	.section	.rodata.str1.1,"aMS",%progbits,1
.L.str.8:
	.asciz	"@ In Busy"
	.size	.L.str.8, 10

	.type	extCommandFinger,%object @ @extCommandFinger
	.section	.bss.extCommandFinger,"aw",%nobits
	.p2align	2
extCommandFinger:
	.long	0
	.size	extCommandFinger, 4

	.section	".note.GNU-stack","",%progbits
	.eabi_attribute	30, 6	@ Tag_ABI_optimization_goals
	.ARM_attribute	16, 1	@ Tag_AV_eba