	.text
	.syntax unified
	.eabi_attribute	67, "2.09"	@ Tag_conformance
	.cpu	cortex-m23
	.eabi_attribute	6, 16	@ Tag_CPU_arch
	.eabi_attribute	7, 77	@ Tag_CPU_arch_profile
	.eabi_attribute	8, 0	@ Tag_ARM_ISA_use
	.eabi_attribute	9, 3	@ Tag_THUMB_ISA_use
	.eabi_attribute	34, 0	@ Tag_CPU_unaligned_access
	.eabi_attribute	17, 1	@ Tag_ABI_PCS_GOT_use
	.eabi_attribute	20, 2	@ Tag_ABI_FP_denormal
	.eabi_attribute	21, 0	@ Tag_ABI_FP_exceptions
	.eabi_attribute	23, 1	@ Tag_ABI_FP_number_model
	.eabi_attribute	24, 1	@ Tag_ABI_align_needed
	.eabi_attribute	25, 1	@ Tag_ABI_align_preserved
	.eabi_attribute	38, 1	@ Tag_ABI_FP_16bit_format
	.eabi_attribute	18, 2	@ Tag_ABI_PCS_wchar_t
	.eabi_attribute	26, 1	@ Tag_ABI_enum_size
	.eabi_attribute	14, 0	@ Tag_ABI_PCS_R9_use
	.file	"MyMCU_UART.c"
	.file	1 "C:\\Work\\Keil WorkSpace\\Furbo\\Keil" "../MYx/Src/MyMCU_UART.c"
	.file	2 "C:\\Work\\Keil WorkSpace\\Furbo\\Keil" "../MYx/Inc/MyMCU_UART.h"
	.file	3 "C:\\Work\\Keil WorkSpace\\Furbo\\Keil" "../../Library/Nuvoton/M251_252_Series/Device/Nuvoton/M251/Include/M251.h"
	.file	4 "C:\\" "Keil_v5\\ARM\\ARMCLANG\\Bin\\..\\include\\stdint.h"
	.file	5 "C:\\Work\\Keil WorkSpace\\Furbo\\Keil" "../../Library/Nuvoton/M251_252_Series/Device/Nuvoton/M251/Include/sys_reg.h"
	.file	6 "C:\\Work\\Keil WorkSpace\\Furbo\\Keil" "../../Library/Nuvoton/M251_252_Series/Device/Nuvoton/M251/Include/uart_reg.h"
	.file	7 "C:\\Work\\Keil WorkSpace\\Furbo\\Keil" "../../Library/Nuvoton/M251_252_Series/CMSIS/Include\\core_cm23.h"
	.hidden	My_printf               @ -- Begin function My_printf
	.globl	My_printf
	.p2align	1
	.type	My_printf,%function
	.code	16                      @ @My_printf
	.thumb_func
My_printf:
.Lfunc_begin0:
	.loc	1 25 0                  @ ../MYx/Src/MyMCU_UART.c:25:0
	.fnstart
	.cfi_sections .debug_frame
	.cfi_startproc
@ %bb.0:
	.pad	#4
	sub	sp, #4
	.cfi_def_cfa_offset 4
	str	r0, [sp]
.Ltmp0:
	.loc	1 34 1 prologue_end     @ ../MYx/Src/MyMCU_UART.c:34:1
	add	sp, #4
	bx	lr
.Ltmp1:
.Lfunc_end0:
	.size	My_printf, .Lfunc_end0-My_printf
	.cfi_endproc
	.cantunwind
	.fnend
                                        @ -- End function
	.hidden	MyUart_Init             @ -- Begin function MyUart_Init
	.globl	MyUart_Init
	.p2align	2
	.type	MyUart_Init,%function
	.code	16                      @ @MyUart_Init
	.thumb_func
MyUart_Init:
.Lfunc_begin1:
	.loc	1 37 0                  @ ../MYx/Src/MyMCU_UART.c:37:0
	.fnstart
	.cfi_startproc
@ %bb.0:
	.save	{r4, lr}
	push	{r4, lr}
	.cfi_def_cfa_offset 8
	.cfi_offset lr, -4
	.cfi_offset r4, -8
	.pad	#16
	sub	sp, #16
	.cfi_def_cfa_offset 24
.Ltmp2:
	.loc	1 44 5 prologue_end     @ ../MYx/Src/MyMCU_UART.c:44:5
	bl	SYS_UnlockReg
	ldr	r0, __arm_cp.1_0
	.loc	1 47 5                  @ ../MYx/Src/MyMCU_UART.c:47:5
	str	r0, [sp, #12]           @ 4-byte Spill
	bl	CLK_EnableModuleClock
	movs	r0, #3
	lsls	r1, r0, #24
	movs	r2, #0
	.loc	1 50 5                  @ ../MYx/Src/MyMCU_UART.c:50:5
	ldr	r3, [sp, #12]           @ 4-byte Reload
	str	r0, [sp, #8]            @ 4-byte Spill
	mov	r0, r3
	bl	CLK_SetModuleClock
	.loc	1 54 5                  @ ../MYx/Src/MyMCU_UART.c:54:5
	bl	SystemCoreClockUpdate
	ldr	r0, __arm_cp.1_1
	.loc	1 61 27                 @ ../MYx/Src/MyMCU_UART.c:61:27
	ldr	r1, [r0]
	movs	r2, #15
	lsls	r3, r2, #16
	.loc	1 61 36 is_stmt 0       @ ../MYx/Src/MyMCU_UART.c:61:36
	bics	r1, r3
	ldr	r3, [sp, #8]            @ 4-byte Reload
	lsls	r4, r3, #17
	.loc	1 61 65                 @ ../MYx/Src/MyMCU_UART.c:61:65
	adds	r1, r1, r4
	.loc	1 61 19                 @ ../MYx/Src/MyMCU_UART.c:61:19
	str	r1, [r0]
	.loc	1 62 27 is_stmt 1       @ ../MYx/Src/MyMCU_UART.c:62:27
	ldr	r1, [r0]
	lsls	r2, r2, #20
	.loc	1 62 36 is_stmt 0       @ ../MYx/Src/MyMCU_UART.c:62:36
	bics	r1, r2
	lsls	r2, r3, #21
	.loc	1 62 65                 @ ../MYx/Src/MyMCU_UART.c:62:65
	adds	r1, r1, r2
	.loc	1 62 19                 @ ../MYx/Src/MyMCU_UART.c:62:19
	str	r1, [r0]
	.loc	1 65 5 is_stmt 1        @ ../MYx/Src/MyMCU_UART.c:65:5
	bl	SYS_LockReg
	movs	r0, #225
	lsls	r1, r0, #9
	ldr	r0, __arm_cp.1_2
	.loc	1 68 5                  @ ../MYx/Src/MyMCU_UART.c:68:5
	str	r0, [sp, #4]            @ 4-byte Spill
	bl	UART_Open
	movs	r1, #16
	.loc	1 71 5                  @ ../MYx/Src/MyMCU_UART.c:71:5
	ldr	r0, [sp, #4]            @ 4-byte Reload
	bl	UART_SetTimeoutCnt
	ldr	r0, __arm_cp.1_3
	.loc	1 74 17                 @ ../MYx/Src/MyMCU_UART.c:74:17
	ldr	r1, [r0]
	movs	r2, #240
	bics	r1, r2
	str	r1, [r0]
	.loc	1 75 17                 @ ../MYx/Src/MyMCU_UART.c:75:17
	ldr	r1, [r0]
	str	r1, [r0]
	movs	r0, #36
	.loc	1 78 5                  @ ../MYx/Src/MyMCU_UART.c:78:5
	bl	__NVIC_EnableIRQ
	movs	r1, #17
	.loc	1 79 5                  @ ../MYx/Src/MyMCU_UART.c:79:5
	ldr	r0, [sp, #4]            @ 4-byte Reload
	bl	UART_EnableInt
	.loc	1 85 1                  @ ../MYx/Src/MyMCU_UART.c:85:1
	add	sp, #16
	pop	{r4, pc}
.Ltmp3:
	.p2align	2
@ %bb.1:
	.loc	1 0 1 is_stmt 0         @ ../MYx/Src/MyMCU_UART.c:0:1
__arm_cp.1_0:
	.long	1602239760              @ 0x5f803d10
.Lcpi_end0:
	.size	__arm_cp.1_0, .Lcpi_end0-__arm_cp.1_0
__arm_cp.1_1:
	.long	1073741884              @ 0x4000003c
.Lcpi_end1:
	.size	__arm_cp.1_1, .Lcpi_end1-__arm_cp.1_1
__arm_cp.1_2:
	.long	1074200576              @ 0x40070000
.Lcpi_end2:
	.size	__arm_cp.1_2, .Lcpi_end2-__arm_cp.1_2
__arm_cp.1_3:
	.long	1074200584              @ 0x40070008
.Lcpi_end3:
	.size	__arm_cp.1_3, .Lcpi_end3-__arm_cp.1_3
.Lfunc_end1:
	.size	MyUart_Init, .Lfunc_end1-MyUart_Init
	.cfi_endproc
	.cantunwind
	.fnend
                                        @ -- End function
	.p2align	2               @ -- Begin function SYS_UnlockReg
	.type	SYS_UnlockReg,%function
	.code	16                      @ @SYS_UnlockReg
	.thumb_func
SYS_UnlockReg:
.Lfunc_begin2:
	.file	8 "C:\\Work\\Keil WorkSpace\\Furbo\\Keil" "../../Library/Nuvoton/M251_252_Series/StdDriver/inc\\sys.h"
	.loc	8 1183 0 is_stmt 1      @ ../../Library/Nuvoton/M251_252_Series/StdDriver/inc\sys.h:1183:0
	.fnstart
	.cfi_startproc
@ %bb.0:
	.loc	8 1184 5 prologue_end   @ ../../Library/Nuvoton/M251_252_Series/StdDriver/inc\sys.h:1184:5
	b	.LBB2_1
.LBB2_1:                                @ =>This Inner Loop Header: Depth=1
	.loc	8 0 5 is_stmt 0         @ ../../Library/Nuvoton/M251_252_Series/StdDriver/inc\sys.h:0:5
	ldr	r0, __arm_cp.2_0
	movs	r1, #89
.Ltmp4:
	.loc	8 1186 22 is_stmt 1     @ ../../Library/Nuvoton/M251_252_Series/StdDriver/inc\sys.h:1186:22
	str	r1, [r0]
	movs	r1, #22
	.loc	8 1187 22               @ ../../Library/Nuvoton/M251_252_Series/StdDriver/inc\sys.h:1187:22
	str	r1, [r0]
	movs	r1, #136
	.loc	8 1188 22               @ ../../Library/Nuvoton/M251_252_Series/StdDriver/inc\sys.h:1188:22
	str	r1, [r0]
	.loc	8 1189 5                @ ../../Library/Nuvoton/M251_252_Series/StdDriver/inc\sys.h:1189:5
	b	.LBB2_2
.Ltmp5:
.LBB2_2:                                @   in Loop: Header=BB2_1 Depth=1
	.loc	8 0 5 is_stmt 0         @ ../../Library/Nuvoton/M251_252_Series/StdDriver/inc\sys.h:0:5
	ldr	r0, __arm_cp.2_0
	.loc	8 1189 19               @ ../../Library/Nuvoton/M251_252_Series/StdDriver/inc\sys.h:1189:19
	ldr	r0, [r0]
.Ltmp6:
	.loc	8 1189 5                @ ../../Library/Nuvoton/M251_252_Series/StdDriver/inc\sys.h:1189:5
	cmp	r0, #0
	beq	.LBB2_1
	b	.LBB2_3
.Ltmp7:
.LBB2_3:
	.loc	8 1190 1 is_stmt 1      @ ../../Library/Nuvoton/M251_252_Series/StdDriver/inc\sys.h:1190:1
	bx	lr
.Ltmp8:
	.p2align	2
@ %bb.4:
	.loc	8 0 1 is_stmt 0         @ ../../Library/Nuvoton/M251_252_Series/StdDriver/inc\sys.h:0:1
__arm_cp.2_0:
	.long	1073742080              @ 0x40000100
.Lcpi_end4:
	.size	__arm_cp.2_0, .Lcpi_end4-__arm_cp.2_0
.Lfunc_end2:
	.size	SYS_UnlockReg, .Lfunc_end2-SYS_UnlockReg
	.cfi_endproc
	.cantunwind
	.fnend
                                        @ -- End function
	.p2align	2               @ -- Begin function SYS_LockReg
	.type	SYS_LockReg,%function
	.code	16                      @ @SYS_LockReg
	.thumb_func
SYS_LockReg:
.Lfunc_begin3:
	.loc	8 1200 0 is_stmt 1      @ ../../Library/Nuvoton/M251_252_Series/StdDriver/inc\sys.h:1200:0
	.fnstart
	.cfi_startproc
@ %bb.0:
	ldr	r0, __arm_cp.3_0
	movs	r1, #0
.Ltmp9:
	.loc	8 1201 18 prologue_end  @ ../../Library/Nuvoton/M251_252_Series/StdDriver/inc\sys.h:1201:18
	str	r1, [r0]
	.loc	8 1202 1                @ ../../Library/Nuvoton/M251_252_Series/StdDriver/inc\sys.h:1202:1
	bx	lr
.Ltmp10:
	.p2align	2
@ %bb.1:
	.loc	8 0 1 is_stmt 0         @ ../../Library/Nuvoton/M251_252_Series/StdDriver/inc\sys.h:0:1
__arm_cp.3_0:
	.long	1073742080              @ 0x40000100
.Lcpi_end5:
	.size	__arm_cp.3_0, .Lcpi_end5-__arm_cp.3_0
.Lfunc_end3:
	.size	SYS_LockReg, .Lfunc_end3-SYS_LockReg
	.cfi_endproc
	.cantunwind
	.fnend
                                        @ -- End function
	.p2align	2               @ -- Begin function __NVIC_EnableIRQ
	.type	__NVIC_EnableIRQ,%function
	.code	16                      @ @__NVIC_EnableIRQ
	.thumb_func
__NVIC_EnableIRQ:
.Lfunc_begin4:
	.loc	7 1276 0 is_stmt 1      @ ../../Library/Nuvoton/M251_252_Series/CMSIS/Include\core_cm23.h:1276:0
	.fnstart
	.cfi_startproc
@ %bb.0:
	.pad	#4
	sub	sp, #4
	.cfi_def_cfa_offset 4
	mov	r1, r0
	mov	r2, sp
	strb	r0, [r2]
.Ltmp11:
	.loc	7 1277 17 prologue_end  @ ../../Library/Nuvoton/M251_252_Series/CMSIS/Include\core_cm23.h:1277:17
	ldrb	r0, [r2]
	sxtb	r0, r0
.Ltmp12:
	.loc	7 1277 7 is_stmt 0      @ ../../Library/Nuvoton/M251_252_Series/CMSIS/Include\core_cm23.h:1277:7
	cmp	r0, #0
	bmi	.LBB4_2
	b	.LBB4_1
.LBB4_1:
	.loc	7 0 7                   @ ../../Library/Nuvoton/M251_252_Series/CMSIS/Include\core_cm23.h:0:7
	mov	r0, sp
.Ltmp13:
	.loc	7 1279 93 is_stmt 1     @ ../../Library/Nuvoton/M251_252_Series/CMSIS/Include\core_cm23.h:1279:93
	ldrb	r0, [r0]
	sxtb	r0, r0
	movs	r1, #31
	.loc	7 1279 99 is_stmt 0     @ ../../Library/Nuvoton/M251_252_Series/CMSIS/Include\core_cm23.h:1279:99
	mov	r2, r0
	ands	r2, r1
	movs	r1, #1
	.loc	7 1279 69               @ ../../Library/Nuvoton/M251_252_Series/CMSIS/Include\core_cm23.h:1279:69
	lsls	r1, r2
	.loc	7 1279 43               @ ../../Library/Nuvoton/M251_252_Series/CMSIS/Include\core_cm23.h:1279:43
	lsrs	r0, r0, #5
	lsls	r0, r0, #2
	ldr	r2, __arm_cp.4_0
	.loc	7 1279 52               @ ../../Library/Nuvoton/M251_252_Series/CMSIS/Include\core_cm23.h:1279:52
	str	r1, [r0, r2]
	.loc	7 1280 3 is_stmt 1      @ ../../Library/Nuvoton/M251_252_Series/CMSIS/Include\core_cm23.h:1280:3
	b	.LBB4_2
.Ltmp14:
.LBB4_2:
	.loc	7 1281 1                @ ../../Library/Nuvoton/M251_252_Series/CMSIS/Include\core_cm23.h:1281:1
	add	sp, #4
	bx	lr
.Ltmp15:
	.p2align	2
@ %bb.3:
	.loc	7 0 1 is_stmt 0         @ ../../Library/Nuvoton/M251_252_Series/CMSIS/Include\core_cm23.h:0:1
__arm_cp.4_0:
	.long	3758153984              @ 0xe000e100
.Lcpi_end6:
	.size	__arm_cp.4_0, .Lcpi_end6-__arm_cp.4_0
.Lfunc_end4:
	.size	__NVIC_EnableIRQ, .Lfunc_end4-__NVIC_EnableIRQ
	.cfi_endproc
	.cantunwind
	.fnend
                                        @ -- End function
	.hidden	MyUart_RxData           @ -- Begin function MyUart_RxData
	.globl	MyUart_RxData
	.p2align	2
	.type	MyUart_RxData,%function
	.code	16                      @ @MyUart_RxData
	.thumb_func
MyUart_RxData:
.Lfunc_begin5:
	.loc	1 90 0 is_stmt 1        @ ../MYx/Src/MyMCU_UART.c:90:0
	.fnstart
	.cfi_startproc
@ %bb.0:
	.pad	#8
	sub	sp, #8
	.cfi_def_cfa_offset 8
	mov	r2, r1
	str	r0, [sp, #4]
	mov	r0, sp
	strh	r1, [r0]
	ldr	r0, __arm_cp.5_0
.Ltmp16:
	.loc	1 94 12 prologue_end    @ ../MYx/Src/MyMCU_UART.c:94:12
	ldr	r0, [r0]
	.loc	1 94 4 is_stmt 0        @ ../MYx/Src/MyMCU_UART.c:94:4
	ldr	r1, [sp, #4]
	.loc	1 94 10                 @ ../MYx/Src/MyMCU_UART.c:94:10
	strb	r0, [r1]
	.loc	1 96 1 is_stmt 1        @ ../MYx/Src/MyMCU_UART.c:96:1
	add	sp, #8
	bx	lr
.Ltmp17:
	.p2align	2
@ %bb.1:
	.loc	1 0 1 is_stmt 0         @ ../MYx/Src/MyMCU_UART.c:0:1
__arm_cp.5_0:
	.long	1074200576              @ 0x40070000
.Lcpi_end7:
	.size	__arm_cp.5_0, .Lcpi_end7-__arm_cp.5_0
.Lfunc_end5:
	.size	MyUart_RxData, .Lfunc_end5-MyUart_RxData
	.cfi_endproc
	.cantunwind
	.fnend
                                        @ -- End function
	.hidden	MyUart_TxData           @ -- Begin function MyUart_TxData
	.globl	MyUart_TxData
	.p2align	2
	.type	MyUart_TxData,%function
	.code	16                      @ @MyUart_TxData
	.thumb_func
MyUart_TxData:
.Lfunc_begin6:
	.loc	1 99 0 is_stmt 1        @ ../MYx/Src/MyMCU_UART.c:99:0
	.fnstart
	.cfi_startproc
@ %bb.0:
	.pad	#12
	sub	sp, #12
	.cfi_def_cfa_offset 12
	mov	r2, r1
	str	r0, [sp, #8]
	add	r0, sp, #4
	strh	r1, [r0]
	movs	r0, #0
.Ltmp18:
	.loc	1 104 10 prologue_end   @ ../MYx/Src/MyMCU_UART.c:104:10
	str	r0, [sp]
	.loc	1 104 8 is_stmt 0       @ ../MYx/Src/MyMCU_UART.c:104:8
	b	.LBB6_1
.LBB6_1:                                @ =>This Loop Header: Depth=1
                                        @     Child Loop BB6_3 Depth 2
.Ltmp19:
	.loc	1 104 16                @ ../MYx/Src/MyMCU_UART.c:104:16
	ldr	r0, [sp]
	add	r1, sp, #4
	.loc	1 104 19                @ ../MYx/Src/MyMCU_UART.c:104:19
	ldrh	r1, [r1]
.Ltmp20:
	.loc	1 104 3                 @ ../MYx/Src/MyMCU_UART.c:104:3
	cmp	r0, r1
	bge	.LBB6_7
	b	.LBB6_2
.LBB6_2:                                @   in Loop: Header=BB6_1 Depth=1
.Ltmp21:
	.loc	1 106 4 is_stmt 1       @ ../MYx/Src/MyMCU_UART.c:106:4
	b	.LBB6_3
.LBB6_3:                                @   Parent Loop BB6_1 Depth=1
                                        @ =>  This Inner Loop Header: Depth=2
	.loc	1 0 4 is_stmt 0         @ ../MYx/Src/MyMCU_UART.c:0:4
	ldr	r0, __arm_cp.6_0
	.loc	1 106 11                @ ../MYx/Src/MyMCU_UART.c:106:11
	ldr	r0, [r0]
	movs	r1, #1
	lsls	r1, r1, #23
	ands	r0, r1
	lsrs	r0, r0, #23
	.loc	1 106 4                 @ ../MYx/Src/MyMCU_UART.c:106:4
	cmp	r0, #0
	beq	.LBB6_5
	b	.LBB6_4
.LBB6_4:                                @   in Loop: Header=BB6_3 Depth=2
	b	.LBB6_3
.LBB6_5:                                @   in Loop: Header=BB6_1 Depth=1
	.loc	1 107 4 is_stmt 1       @ ../MYx/Src/MyMCU_UART.c:107:4
	ldr	r0, [sp, #8]
	ldr	r1, [sp]
	ldrb	r0, [r0, r1]
	ldr	r1, __arm_cp.6_1
	str	r0, [r1]
	.loc	1 108 3                 @ ../MYx/Src/MyMCU_UART.c:108:3
	b	.LBB6_6
.Ltmp22:
.LBB6_6:                                @   in Loop: Header=BB6_1 Depth=1
	.loc	1 104 26                @ ../MYx/Src/MyMCU_UART.c:104:26
	ldr	r0, [sp]
	adds	r0, r0, #1
	str	r0, [sp]
	.loc	1 104 3 is_stmt 0       @ ../MYx/Src/MyMCU_UART.c:104:3
	b	.LBB6_1
.Ltmp23:
.LBB6_7:
	.loc	1 110 1 is_stmt 1       @ ../MYx/Src/MyMCU_UART.c:110:1
	add	sp, #12
	bx	lr
.Ltmp24:
	.p2align	2
@ %bb.8:
	.loc	1 0 1 is_stmt 0         @ ../MYx/Src/MyMCU_UART.c:0:1
__arm_cp.6_0:
	.long	1074200600              @ 0x40070018
.Lcpi_end8:
	.size	__arm_cp.6_0, .Lcpi_end8-__arm_cp.6_0
__arm_cp.6_1:
	.long	1074200576              @ 0x40070000
.Lcpi_end9:
	.size	__arm_cp.6_1, .Lcpi_end9-__arm_cp.6_1
.Lfunc_end6:
	.size	MyUart_TxData, .Lfunc_end6-MyUart_TxData
	.cfi_endproc
	.cantunwind
	.fnend
                                        @ -- End function
	.hidden	MyUart_Receive          @ -- Begin function MyUart_Receive
	.globl	MyUart_Receive
	.p2align	2
	.type	MyUart_Receive,%function
	.code	16                      @ @MyUart_Receive
	.thumb_func
MyUart_Receive:
.Lfunc_begin7:
	.loc	1 113 0 is_stmt 1       @ ../MYx/Src/MyMCU_UART.c:113:0
	.fnstart
	.cfi_startproc
@ %bb.0:
	.save	{r7, lr}
	push	{r7, lr}
	.cfi_def_cfa_offset 8
	.cfi_offset lr, -4
	.cfi_offset r7, -8
	.pad	#40
	sub	sp, #40
	.cfi_def_cfa_offset 48
.Ltmp25:
	.loc	1 120 16 prologue_end   @ ../MYx/Src/MyMCU_UART.c:120:16
	ldr	r0, __arm_cp.7_0
	ldr	r1, [r0]
	movs	r2, #1
	.loc	1 120 2 is_stmt 0       @ ../MYx/Src/MyMCU_UART.c:120:2
	str	r0, [sp, #24]           @ 4-byte Spill
	mov	r0, r1
	mov	r1, r2
	bl	MyUart_RxData
.Ltmp26:
	.loc	1 122 8 is_stmt 1       @ ../MYx/Src/MyMCU_UART.c:122:8
	ldr	r0, [sp, #24]           @ 4-byte Reload
	ldr	r1, [r0]
	.loc	1 122 7 is_stmt 0       @ ../MYx/Src/MyMCU_UART.c:122:7
	ldrb	r1, [r1]
.Ltmp27:
	.loc	1 122 7                 @ ../MYx/Src/MyMCU_UART.c:122:7
	cmp	r1, #128
	blt	.LBB7_2
	b	.LBB7_1
.LBB7_1:
.Ltmp28:
	.loc	1 124 3 is_stmt 1       @ ../MYx/Src/MyMCU_UART.c:124:3
	b	.LBB7_13
.Ltmp29:
.LBB7_2:
	.loc	1 126 12                @ ../MYx/Src/MyMCU_UART.c:126:12
	ldr	r0, __arm_cp.7_0
	ldr	r0, [r0]
	.loc	1 126 11 is_stmt 0      @ ../MYx/Src/MyMCU_UART.c:126:11
	ldrb	r0, [r0]
.Ltmp30:
	.loc	1 126 11                @ ../MYx/Src/MyMCU_UART.c:126:11
	cmp	r0, #8
	bne	.LBB7_6
	b	.LBB7_3
.LBB7_3:
.Ltmp31:
	.loc	1 128 12 is_stmt 1      @ ../MYx/Src/MyMCU_UART.c:128:12
	ldr	r0, __arm_cp.7_1
	ldrb	r0, [r0]
.Ltmp32:
	.loc	1 128 11 is_stmt 0      @ ../MYx/Src/MyMCU_UART.c:128:11
	cmp	r0, #1
	blt	.LBB7_5
	b	.LBB7_4
.LBB7_4:
.Ltmp33:
	.loc	1 131 14 is_stmt 1      @ ../MYx/Src/MyMCU_UART.c:131:14
	ldr	r0, __arm_cp.7_1
	ldrb	r1, [r0]
	subs	r1, r1, #1
	strb	r1, [r0]
	.loc	1 132 15                @ ../MYx/Src/MyMCU_UART.c:132:15
	ldr	r1, __arm_cp.7_0
	ldr	r2, [r1]
	subs	r2, r2, #1
	str	r2, [r1]
	.loc	1 133 16                @ ../MYx/Src/MyMCU_UART.c:133:16
	ldrb	r0, [r0]
	.loc	1 133 7 is_stmt 0       @ ../MYx/Src/MyMCU_UART.c:133:7
	ldr	r1, __arm_cp.7_4
	movs	r2, #0
	.loc	1 133 25                @ ../MYx/Src/MyMCU_UART.c:133:25
	strb	r2, [r1, r0]
	add	r0, sp, #28
	.loc	1 135 21 is_stmt 1      @ ../MYx/Src/MyMCU_UART.c:135:21
	strh	r2, [r0, #8]
	str	r2, [sp, #32]
	ldr	r1, __arm_cp.7_5
	str	r1, [sp, #28]
	movs	r1, #3
	.loc	1 137 4                 @ ../MYx/Src/MyMCU_UART.c:137:4
	bl	MyUart_TxData
	.loc	1 139 6                 @ ../MYx/Src/MyMCU_UART.c:139:6
	b	.LBB7_5
.Ltmp34:
.LBB7_5:
	.loc	1 141 2                 @ ../MYx/Src/MyMCU_UART.c:141:2
	b	.LBB7_12
.Ltmp35:
.LBB7_6:
	.loc	1 142 12                @ ../MYx/Src/MyMCU_UART.c:142:12
	ldr	r0, __arm_cp.7_0
	ldr	r0, [r0]
	.loc	1 142 11 is_stmt 0      @ ../MYx/Src/MyMCU_UART.c:142:11
	ldrb	r0, [r0]
	.loc	1 142 30                @ ../MYx/Src/MyMCU_UART.c:142:30
	cmp	r0, #10
	beq	.LBB7_9
	b	.LBB7_7
.LBB7_7:
	.loc	1 142 35                @ ../MYx/Src/MyMCU_UART.c:142:35
	ldr	r0, __arm_cp.7_0
	ldr	r0, [r0]
	.loc	1 142 34                @ ../MYx/Src/MyMCU_UART.c:142:34
	ldrb	r0, [r0]
	.loc	1 142 53                @ ../MYx/Src/MyMCU_UART.c:142:53
	cmp	r0, #13
	beq	.LBB7_9
	b	.LBB7_8
.LBB7_8:
	.loc	1 142 56                @ ../MYx/Src/MyMCU_UART.c:142:56
	ldr	r0, __arm_cp.7_1
	ldrb	r0, [r0]
.Ltmp36:
	.loc	1 142 10                @ ../MYx/Src/MyMCU_UART.c:142:10
	cmp	r0, #62
	blt	.LBB7_10
	b	.LBB7_9
.LBB7_9:
.Ltmp37:
	.loc	1 144 4 is_stmt 1       @ ../MYx/Src/MyMCU_UART.c:144:4
	ldr	r0, __arm_cp.7_0
	ldr	r1, [r0]
	movs	r2, #0
	.loc	1 144 13 is_stmt 0      @ ../MYx/Src/MyMCU_UART.c:144:13
	strb	r2, [r1]
	.loc	1 145 3 is_stmt 1       @ ../MYx/Src/MyMCU_UART.c:145:3
	ldr	r1, __arm_cp.7_3
	ldr	r3, __arm_cp.7_4
	str	r0, [sp, #20]           @ 4-byte Spill
	mov	r0, r1
	mov	r1, r3
	str	r2, [sp, #16]           @ 4-byte Spill
	str	r3, [sp, #12]           @ 4-byte Spill
	bl	strcpy
	.loc	1 146 14                @ ../MYx/Src/MyMCU_UART.c:146:14
	ldr	r1, __arm_cp.7_2
	movs	r2, #2
	strb	r2, [r1]
	movs	r1, #13
	.loc	1 149 15                @ ../MYx/Src/MyMCU_UART.c:149:15
	ldr	r3, [sp, #12]           @ 4-byte Reload
	strb	r1, [r3]
	movs	r1, #10
	.loc	1 150 15                @ ../MYx/Src/MyMCU_UART.c:150:15
	strb	r1, [r3, #1]
	.loc	1 152 3                 @ ../MYx/Src/MyMCU_UART.c:152:3
	str	r0, [sp, #8]            @ 4-byte Spill
	mov	r0, r3
	mov	r1, r2
	bl	MyUart_TxData
	.loc	1 153 12                @ ../MYx/Src/MyMCU_UART.c:153:12
	ldr	r0, [sp, #12]           @ 4-byte Reload
	ldr	r1, [sp, #20]           @ 4-byte Reload
	str	r0, [r1]
	.loc	1 154 12                @ ../MYx/Src/MyMCU_UART.c:154:12
	ldr	r2, __arm_cp.7_1
	ldr	r3, [sp, #16]           @ 4-byte Reload
	strb	r3, [r2]
	.loc	1 156 2                 @ ../MYx/Src/MyMCU_UART.c:156:2
	b	.LBB7_11
.Ltmp38:
.LBB7_10:
	.loc	1 159 17                @ ../MYx/Src/MyMCU_UART.c:159:17
	ldr	r0, __arm_cp.7_0
	ldr	r1, [r0]
	movs	r2, #1
	.loc	1 159 3 is_stmt 0       @ ../MYx/Src/MyMCU_UART.c:159:3
	str	r0, [sp, #4]            @ 4-byte Spill
	mov	r0, r1
	mov	r1, r2
	str	r2, [sp]                @ 4-byte Spill
	bl	MyUart_TxData
	.loc	1 160 11 is_stmt 1      @ ../MYx/Src/MyMCU_UART.c:160:11
	ldr	r0, [sp, #4]            @ 4-byte Reload
	ldr	r1, [r0]
	adds	r1, r1, #1
	str	r1, [r0]
	.loc	1 161 10                @ ../MYx/Src/MyMCU_UART.c:161:10
	ldr	r1, __arm_cp.7_1
	ldrb	r2, [r1]
	adds	r2, r2, #1
	strb	r2, [r1]
	.loc	1 162 14                @ ../MYx/Src/MyMCU_UART.c:162:14
	ldr	r1, __arm_cp.7_2
	ldr	r2, [sp]                @ 4-byte Reload
	strb	r2, [r1]
	b	.LBB7_11
.Ltmp39:
.LBB7_11:
	.loc	1 0 14 is_stmt 0        @ ../MYx/Src/MyMCU_UART.c:0:14
	b	.LBB7_12
.LBB7_12:
	b	.LBB7_13
.LBB7_13:
	.loc	1 165 1 is_stmt 1       @ ../MYx/Src/MyMCU_UART.c:165:1
	add	sp, #40
	pop	{r7, pc}
.Ltmp40:
	.p2align	2
@ %bb.14:
	.loc	1 0 1 is_stmt 0         @ ../MYx/Src/MyMCU_UART.c:0:1
__arm_cp.7_0:
	.long	MyUart_Receive.pRx_Data
.Lcpi_end10:
	.size	__arm_cp.7_0, .Lcpi_end10-__arm_cp.7_0
__arm_cp.7_1:
	.long	MyUart_Receive.uLength
.Lcpi_end11:
	.size	__arm_cp.7_1, .Lcpi_end11-__arm_cp.7_1
__arm_cp.7_2:
	.long	CMD_Status
.Lcpi_end12:
	.size	__arm_cp.7_2, .Lcpi_end12-__arm_cp.7_2
__arm_cp.7_3:
	.long	UART_CMD
.Lcpi_end13:
	.size	__arm_cp.7_3, .Lcpi_end13-__arm_cp.7_3
__arm_cp.7_4:
	.long	MyUart_Receive.uRx_Data
.Lcpi_end14:
	.size	__arm_cp.7_4, .Lcpi_end14-__arm_cp.7_4
__arm_cp.7_5:
	.long	532488                  @ 0x82008
.Lcpi_end15:
	.size	__arm_cp.7_5, .Lcpi_end15-__arm_cp.7_5
.Lfunc_end7:
	.size	MyUart_Receive, .Lfunc_end7-MyUart_Receive
	.cfi_endproc
	.cantunwind
	.fnend
                                        @ -- End function
	.hidden	MyUart_IRQHandler       @ -- Begin function MyUart_IRQHandler
	.globl	MyUart_IRQHandler
	.p2align	2
	.type	MyUart_IRQHandler,%function
	.code	16                      @ @MyUart_IRQHandler
	.thumb_func
MyUart_IRQHandler:
.Lfunc_begin8:
	.loc	1 168 0 is_stmt 1       @ ../MYx/Src/MyMCU_UART.c:168:0
	.fnstart
	.cfi_startproc
@ %bb.0:
	.save	{r7, lr}
	push	{r7, lr}
	.cfi_def_cfa_offset 8
	.cfi_offset lr, -4
	.cfi_offset r7, -8
	ldr	r0, __arm_cp.8_0
.Ltmp41:
	.loc	1 173 14 prologue_end   @ ../MYx/Src/MyMCU_UART.c:173:14
	ldr	r0, [r0]
	.loc	1 173 47 is_stmt 0      @ ../MYx/Src/MyMCU_UART.c:173:47
	lsls	r0, r0, #23
	cmp	r0, #0
	bmi	.LBB8_2
	b	.LBB8_1
.LBB8_1:
	.loc	1 0 47                  @ ../MYx/Src/MyMCU_UART.c:0:47
	ldr	r0, __arm_cp.8_0
	.loc	1 173 58                @ ../MYx/Src/MyMCU_UART.c:173:58
	ldr	r0, [r0]
.Ltmp42:
	.loc	1 173 6                 @ ../MYx/Src/MyMCU_UART.c:173:6
	lsls	r0, r0, #19
	cmp	r0, #0
	bpl	.LBB8_3
	b	.LBB8_2
.LBB8_2:
.Ltmp43:
	.loc	1 176 3 is_stmt 1       @ ../MYx/Src/MyMCU_UART.c:176:3
	bl	MyUart_Receive
	.loc	1 177 2                 @ ../MYx/Src/MyMCU_UART.c:177:2
	b	.LBB8_3
.Ltmp44:
.LBB8_3:
	.loc	1 179 1                 @ ../MYx/Src/MyMCU_UART.c:179:1
	pop	{r7, pc}
.Ltmp45:
	.p2align	2
@ %bb.4:
	.loc	1 0 1 is_stmt 0         @ ../MYx/Src/MyMCU_UART.c:0:1
__arm_cp.8_0:
	.long	1074200604              @ 0x4007001c
.Lcpi_end16:
	.size	__arm_cp.8_0, .Lcpi_end16-__arm_cp.8_0
.Lfunc_end8:
	.size	MyUart_IRQHandler, .Lfunc_end8-MyUart_IRQHandler
	.cfi_endproc
	.cantunwind
	.fnend
                                        @ -- End function
	.hidden	MyUART_GetCMDStatus     @ -- Begin function MyUART_GetCMDStatus
	.globl	MyUART_GetCMDStatus
	.p2align	2
	.type	MyUART_GetCMDStatus,%function
	.code	16                      @ @MyUART_GetCMDStatus
	.thumb_func
MyUART_GetCMDStatus:
.Lfunc_begin9:
	.loc	1 182 0 is_stmt 1       @ ../MYx/Src/MyMCU_UART.c:182:0
	.fnstart
	.cfi_startproc
@ %bb.0:
	.loc	1 183 9 prologue_end    @ ../MYx/Src/MyMCU_UART.c:183:9
	ldr	r0, __arm_cp.9_0
	ldrb	r0, [r0]
	.loc	1 183 2 is_stmt 0       @ ../MYx/Src/MyMCU_UART.c:183:2
	bx	lr
.Ltmp46:
	.p2align	2
@ %bb.1:
	.loc	1 0 2                   @ ../MYx/Src/MyMCU_UART.c:0:2
__arm_cp.9_0:
	.long	CMD_Status
.Lcpi_end17:
	.size	__arm_cp.9_0, .Lcpi_end17-__arm_cp.9_0
.Lfunc_end9:
	.size	MyUART_GetCMDStatus, .Lfunc_end9-MyUART_GetCMDStatus
	.cfi_endproc
	.cantunwind
	.fnend
                                        @ -- End function
	.hidden	MyUART_GetCMD           @ -- Begin function MyUART_GetCMD
	.globl	MyUART_GetCMD
	.p2align	2
	.type	MyUART_GetCMD,%function
	.code	16                      @ @MyUART_GetCMD
	.thumb_func
MyUART_GetCMD:
.Lfunc_begin10:
	.loc	1 187 0 is_stmt 1       @ ../MYx/Src/MyMCU_UART.c:187:0
	.fnstart
	.cfi_startproc
@ %bb.0:
	.save	{r7, lr}
	push	{r7, lr}
	.cfi_def_cfa_offset 8
	.cfi_offset lr, -4
	.cfi_offset r7, -8
	.pad	#8
	sub	sp, #8
	.cfi_def_cfa_offset 16
	str	r0, [sp, #4]
.Ltmp47:
	.loc	1 188 6 prologue_end    @ ../MYx/Src/MyMCU_UART.c:188:6
	ldr	r0, __arm_cp.10_0
	ldrb	r0, [r0]
.Ltmp48:
	.loc	1 188 6 is_stmt 0       @ ../MYx/Src/MyMCU_UART.c:188:6
	cmp	r0, #2
	bne	.LBB10_2
	b	.LBB10_1
.LBB10_1:
.Ltmp49:
	.loc	1 190 10 is_stmt 1      @ ../MYx/Src/MyMCU_UART.c:190:10
	ldr	r0, [sp, #4]
	.loc	1 190 3 is_stmt 0       @ ../MYx/Src/MyMCU_UART.c:190:3
	ldr	r1, __arm_cp.10_1
	bl	strcpy
	.loc	1 192 14 is_stmt 1      @ ../MYx/Src/MyMCU_UART.c:192:14
	ldr	r1, __arm_cp.10_0
	movs	r2, #0
	strb	r2, [r1]
	.loc	1 193 2                 @ ../MYx/Src/MyMCU_UART.c:193:2
	b	.LBB10_2
.Ltmp50:
.LBB10_2:
	.loc	1 194 1                 @ ../MYx/Src/MyMCU_UART.c:194:1
	add	sp, #8
	pop	{r7, pc}
.Ltmp51:
	.p2align	2
@ %bb.3:
	.loc	1 0 1 is_stmt 0         @ ../MYx/Src/MyMCU_UART.c:0:1
__arm_cp.10_0:
	.long	CMD_Status
.Lcpi_end18:
	.size	__arm_cp.10_0, .Lcpi_end18-__arm_cp.10_0
__arm_cp.10_1:
	.long	UART_CMD
.Lcpi_end19:
	.size	__arm_cp.10_1, .Lcpi_end19-__arm_cp.10_1
.Lfunc_end10:
	.size	MyUART_GetCMD, .Lfunc_end10-MyUART_GetCMD
	.cfi_endproc
	.cantunwind
	.fnend
                                        @ -- End function
	.hidden	UART_CMD                @ @UART_CMD
	.type	UART_CMD,%object
	.section	.bss.UART_CMD,"aw",%nobits
	.globl	UART_CMD
UART_CMD:
.LUART_CMD$local:
	.zero	64
	.size	UART_CMD, 64

	.hidden	Rx_Status               @ @Rx_Status
	.type	Rx_Status,%object
	.section	.bss.Rx_Status,"aw",%nobits
	.globl	Rx_Status
Rx_Status:
.LRx_Status$local:
	.byte	0                       @ 0x0
	.size	Rx_Status, 1

	.hidden	CMD_Status              @ @CMD_Status
	.type	CMD_Status,%object
	.section	.bss.CMD_Status,"aw",%nobits
	.globl	CMD_Status
CMD_Status:
.LCMD_Status$local:
	.byte	0                       @ 0x0
	.size	CMD_Status, 1

	.type	MyUart_Receive.uRx_Data,%object @ @MyUart_Receive.uRx_Data
	.section	.bss.MyUart_Receive.uRx_Data,"aw",%nobits
MyUart_Receive.uRx_Data:
	.zero	64
	.size	MyUart_Receive.uRx_Data, 64

	.type	MyUart_Receive.pRx_Data,%object @ @MyUart_Receive.pRx_Data
	.section	.data.MyUart_Receive.pRx_Data,"aw",%progbits
	.p2align	2
MyUart_Receive.pRx_Data:
	.long	MyUart_Receive.uRx_Data
	.size	MyUart_Receive.pRx_Data, 4

	.type	MyUart_Receive.uLength,%object @ @MyUart_Receive.uLength
	.section	.bss.MyUart_Receive.uLength,"aw",%nobits
MyUart_Receive.uLength:
	.byte	0                       @ 0x0
	.size	MyUart_Receive.uLength, 1

	.type	.L__const.MyUart_Receive.BK,%object @ @__const.MyUart_Receive.BK
	.section	.rodata..L__const.MyUart_Receive.BK,"a",%progbits
.L__const.MyUart_Receive.BK:
	.asciz	"\b \b\000\000\000\000\000\000"
	.size	.L__const.MyUart_Receive.BK, 10

	.section	".note.GNU-stack","",%progbits
	.eabi_attribute	30, 6	@ Tag_ABI_optimization_goals
	.ARM_attribute	16, 1	@ Tag_AV_eba