	.text
	.syntax unified
	.eabi_attribute	67, "2.09"	@ Tag_conformance
	.cpu	cortex-m23
	.eabi_attribute	6, 16	@ Tag_CPU_arch
	.eabi_attribute	7, 77	@ Tag_CPU_arch_profile
	.eabi_attribute	8, 0	@ Tag_ARM_ISA_use
	.eabi_attribute	9, 3	@ Tag_THUMB_ISA_use
	.eabi_attribute	34, 0	@ Tag_CPU_unaligned_access
	.eabi_attribute	17, 1	@ Tag_ABI_PCS_GOT_use
	.eabi_attribute	20, 2	@ Tag_ABI_FP_denormal
	.eabi_attribute	21, 0	@ Tag_ABI_FP_exceptions
	.eabi_attribute	23, 1	@ Tag_ABI_FP_number_model
	.eabi_attribute	24, 1	@ Tag_ABI_align_needed
	.eabi_attribute	25, 1	@ Tag_ABI_align_preserved
	.eabi_attribute	38, 1	@ Tag_ABI_FP_16bit_format
	.eabi_attribute	18, 2	@ Tag_ABI_PCS_wchar_t
	.eabi_attribute	26, 1	@ Tag_ABI_enum_size
	.eabi_attribute	14, 0	@ Tag_ABI_PCS_R9_use
	.file	"MyMCU_I2C.c"
	.file	1 "C:\\Work\\Keil WorkSpace\\Furbo\\Keil" "../MYx/Core/Inc\\MyMCU_I2C.h"
	.hidden	MyI2C_Init              @ -- Begin function MyI2C_Init
	.globl	MyI2C_Init
	.p2align	1
	.type	MyI2C_Init,%function
	.code	16                      @ @MyI2C_Init
	.thumb_func
MyI2C_Init:
.Lfunc_begin0:
	.file	2 "C:\\Work\\Keil WorkSpace\\Furbo\\Keil" "../MYx/Core/Src/MyMCU_I2C.c"
	.loc	2 16 0                  @ ../MYx/Core/Src/MyMCU_I2C.c:16:0
	.fnstart
	.cfi_sections .debug_frame
	.cfi_startproc
@ %bb.0:
	.loc	2 67 1 prologue_end     @ ../MYx/Core/Src/MyMCU_I2C.c:67:1
	bx	lr
.Ltmp0:
.Lfunc_end0:
	.size	MyI2C_Init, .Lfunc_end0-MyI2C_Init
	.cfi_endproc
	.cantunwind
	.fnend
                                        @ -- End function
	.hidden	MyI2C_Write             @ -- Begin function MyI2C_Write
	.globl	MyI2C_Write
	.p2align	1
	.type	MyI2C_Write,%function
	.code	16                      @ @MyI2C_Write
	.thumb_func
MyI2C_Write:
.Lfunc_begin1:
	.loc	2 69 0                  @ ../MYx/Core/Src/MyMCU_I2C.c:69:0
	.fnstart
	.cfi_startproc
@ %bb.0:
	.save	{r4, r5, r6, r7, lr}
	push	{r4, r5, r6, r7, lr}
	.cfi_def_cfa_offset 20
	.cfi_offset lr, -4
	.cfi_offset r7, -8
	.cfi_offset r6, -12
	.cfi_offset r5, -16
	.cfi_offset r4, -20
	.pad	#28
	sub	sp, #28
	.cfi_def_cfa_offset 48
	mov	r4, r3
	mov	r5, r2
	mov	r6, r1
	mov	r7, r0
	str	r0, [sp, #8]            @ 4-byte Spill
	add	r0, sp, #24
	str	r0, [sp, #4]            @ 4-byte Spill
	ldr	r0, [sp, #8]            @ 4-byte Reload
	str	r1, [sp]                @ 4-byte Spill
	ldr	r1, [sp, #4]            @ 4-byte Reload
	strh	r0, [r1]
	add	r1, sp, #20
	ldr	r0, [sp]                @ 4-byte Reload
	strh	r0, [r1]
	add	r1, sp, #16
	strh	r2, [r1]
	add	r1, sp, #12
	strb	r3, [r1]
	movs	r0, #0
.Ltmp1:
	.loc	2 87 2 prologue_end     @ ../MYx/Core/Src/MyMCU_I2C.c:87:2
	add	sp, #28
	pop	{r4, r5, r6, r7, pc}
.Ltmp2:
.Lfunc_end1:
	.size	MyI2C_Write, .Lfunc_end1-MyI2C_Write
	.cfi_endproc
	.cantunwind
	.fnend
                                        @ -- End function
	.hidden	MyI2C_Read              @ -- Begin function MyI2C_Read
	.globl	MyI2C_Read
	.p2align	1
	.type	MyI2C_Read,%function
	.code	16                      @ @MyI2C_Read
	.thumb_func
MyI2C_Read:
.Lfunc_begin2:
	.loc	2 91 0                  @ ../MYx/Core/Src/MyMCU_I2C.c:91:0
	.fnstart
	.cfi_startproc
@ %bb.0:
	.save	{r4, r5, r6, r7, lr}
	push	{r4, r5, r6, r7, lr}
	.cfi_def_cfa_offset 20
	.cfi_offset lr, -4
	.cfi_offset r7, -8
	.cfi_offset r6, -12
	.cfi_offset r5, -16
	.cfi_offset r4, -20
	.pad	#16
	sub	sp, #16
	.cfi_def_cfa_offset 36
	mov	r4, r3
	mov	r5, r1
	mov	r6, r0
	add	r7, sp, #12
	strh	r0, [r7]
	add	r0, sp, #8
	strh	r1, [r0]
	str	r2, [sp, #4]
	mov	r0, sp
	strb	r3, [r0]
	movs	r0, #0
.Ltmp3:
	.loc	2 139 2 prologue_end    @ ../MYx/Core/Src/MyMCU_I2C.c:139:2
	add	sp, #16
	pop	{r4, r5, r6, r7, pc}
.Ltmp4:
.Lfunc_end2:
	.size	MyI2C_Read, .Lfunc_end2-MyI2C_Read
	.cfi_endproc
	.cantunwind
	.fnend
                                        @ -- End function
	.hidden	MyI2C_SelfTest          @ -- Begin function MyI2C_SelfTest
	.globl	MyI2C_SelfTest
	.p2align	2
	.type	MyI2C_SelfTest,%function
	.code	16                      @ @MyI2C_SelfTest
	.thumb_func
MyI2C_SelfTest:
.Lfunc_begin3:
	.loc	2 143 0                 @ ../MYx/Core/Src/MyMCU_I2C.c:143:0
	.fnstart
	.cfi_startproc
@ %bb.0:
	.save	{r7, lr}
	push	{r7, lr}
	.cfi_def_cfa_offset 8
	.cfi_offset lr, -4
	.cfi_offset r7, -8
	.pad	#24
	sub	sp, #24
	.cfi_def_cfa_offset 32
	add	r0, sp, #20
	movs	r1, #192
.Ltmp5:
	.loc	2 144 8 prologue_end    @ ../MYx/Core/Src/MyMCU_I2C.c:144:8
	strh	r1, [r0]
	add	r1, sp, #16
	movs	r2, #1
	.loc	2 144 24 is_stmt 0      @ ../MYx/Core/Src/MyMCU_I2C.c:144:24
	strh	r2, [r1]
	add	r3, sp, #8
	.loc	2 145 10 is_stmt 1      @ ../MYx/Core/Src/MyMCU_I2C.c:145:10
	strb	r2, [r3]
	.loc	2 146 13                @ ../MYx/Core/Src/MyMCU_I2C.c:146:13
	ldrh	r0, [r0]
	sxth	r0, r0
	.loc	2 146 22 is_stmt 0      @ ../MYx/Core/Src/MyMCU_I2C.c:146:22
	ldrh	r1, [r1]
	sxth	r1, r1
	.loc	2 146 39                @ ../MYx/Core/Src/MyMCU_I2C.c:146:39
	ldrb	r3, [r3]
	add	r2, sp, #12
	.loc	2 146 2                 @ ../MYx/Core/Src/MyMCU_I2C.c:146:2
	str	r2, [sp, #4]            @ 4-byte Spill
	bl	MyI2C_Read
	.loc	2 147 37 is_stmt 1      @ ../MYx/Core/Src/MyMCU_I2C.c:147:37
	ldr	r1, [sp, #4]            @ 4-byte Reload
	ldrh	r2, [r1]
	sxth	r1, r2
	.loc	2 147 2 is_stmt 0       @ ../MYx/Core/Src/MyMCU_I2C.c:147:2
	ldr	r2, __arm_cp.3_0
	str	r0, [sp]                @ 4-byte Spill
	mov	r0, r2
	bl	printf
	.loc	2 149 1 is_stmt 1       @ ../MYx/Core/Src/MyMCU_I2C.c:149:1
	add	sp, #24
	pop	{r7, pc}
.Ltmp6:
	.p2align	2
@ %bb.1:
	.loc	2 0 1 is_stmt 0         @ ../MYx/Core/Src/MyMCU_I2C.c:0:1
__arm_cp.3_0:
	.long	.L.str
.Lcpi_end0:
	.size	__arm_cp.3_0, .Lcpi_end0-__arm_cp.3_0
.Lfunc_end3:
	.size	MyI2C_SelfTest, .Lfunc_end3-MyI2C_SelfTest
	.cfi_endproc
	.cantunwind
	.fnend
                                        @ -- End function
	.hidden	MyI2C_Test              @ -- Begin function MyI2C_Test
	.globl	MyI2C_Test
	.p2align	1
	.type	MyI2C_Test,%function
	.code	16                      @ @MyI2C_Test
	.thumb_func
MyI2C_Test:
.Lfunc_begin4:
	.loc	2 153 0 is_stmt 1       @ ../MYx/Core/Src/MyMCU_I2C.c:153:0
	.fnstart
	.cfi_startproc
@ %bb.0:
	.loc	2 174 1 prologue_end    @ ../MYx/Core/Src/MyMCU_I2C.c:174:1
	bx	lr
.Ltmp7:
.Lfunc_end4:
	.size	MyI2C_Test, .Lfunc_end4-MyI2C_Test
	.cfi_endproc
	.cantunwind
	.fnend
                                        @ -- End function
	.type	.L.str,%object          @ @.str
	.section	.rodata.str1.1,"aMS",%progbits,1
.L.str:
	.asciz	"MyI2C_SelfTest = %d \r\n"
	.size	.L.str, 23

	.section	".note.GNU-stack","",%progbits
	.eabi_attribute	30, 6	@ Tag_ABI_optimization_goals
	.ARM_attribute	16, 1	@ Tag_AV_eba