	.text
	.syntax unified
	.eabi_attribute	67, "2.09"	@ Tag_conformance
	.cpu	cortex-m23
	.eabi_attribute	6, 16	@ Tag_CPU_arch
	.eabi_attribute	7, 77	@ Tag_CPU_arch_profile
	.eabi_attribute	8, 0	@ Tag_ARM_ISA_use
	.eabi_attribute	9, 3	@ Tag_THUMB_ISA_use
	.eabi_attribute	34, 0	@ Tag_CPU_unaligned_access
	.eabi_attribute	17, 1	@ Tag_ABI_PCS_GOT_use
	.eabi_attribute	20, 2	@ Tag_ABI_FP_denormal
	.eabi_attribute	21, 0	@ Tag_ABI_FP_exceptions
	.eabi_attribute	23, 1	@ Tag_ABI_FP_number_model
	.eabi_attribute	24, 1	@ Tag_ABI_align_needed
	.eabi_attribute	25, 1	@ Tag_ABI_align_preserved
	.eabi_attribute	38, 1	@ Tag_ABI_FP_16bit_format
	.eabi_attribute	18, 2	@ Tag_ABI_PCS_wchar_t
	.eabi_attribute	26, 1	@ Tag_ABI_enum_size
	.eabi_attribute	14, 0	@ Tag_ABI_PCS_R9_use
	.file	"MyMCU_GPIO.c"
	.file	1 "C:\\" "Keil_v5\\ARM\\ARMCLANG\\Bin\\..\\include\\stdint.h"
	.file	2 "C:\\Work\\Keil WorkSpace\\Furbo\\Keil" "../../Library/Nuvoton/M251_252_Series/Device/Nuvoton/M251/Include/gpio_reg.h"
	.file	3 "C:\\Work\\Keil WorkSpace\\Furbo\\Keil" "../MYx/Src/MyMCU_GPIO.c"
	.file	4 "C:\\Work\\Keil WorkSpace\\Furbo\\Keil" "../MYx/Inc/MyMCU_GPIO.h"
	.hidden	MyGPIO_Init             @ -- Begin function MyGPIO_Init
	.globl	MyGPIO_Init
	.p2align	2
	.type	MyGPIO_Init,%function
	.code	16                      @ @MyGPIO_Init
	.thumb_func
MyGPIO_Init:
.Lfunc_begin0:
	.loc	3 25 0                  @ ../MYx/Src/MyMCU_GPIO.c:25:0
	.fnstart
	.cfi_sections .debug_frame
	.cfi_startproc
@ %bb.0:
	.save	{r7, lr}
	push	{r7, lr}
	.cfi_def_cfa_offset 8
	.cfi_offset lr, -4
	.cfi_offset r7, -8
	.pad	#8
	sub	sp, #8
	.cfi_def_cfa_offset 16
	movs	r0, #1
	movs	r1, #3
.Ltmp0:
	.loc	3 48 2 prologue_end     @ ../MYx/Src/MyMCU_GPIO.c:48:2
	bl	MyGPIO_Conf2Output
	movs	r0, #2
	movs	r1, #0
	.loc	3 49 2                  @ ../MYx/Src/MyMCU_GPIO.c:49:2
	str	r0, [sp, #4]            @ 4-byte Spill
	str	r1, [sp]                @ 4-byte Spill
	bl	MyGPIO_Conf2Output
	ldr	r0, __arm_cp.0_0
	.loc	3 50 2                  @ ../MYx/Src/MyMCU_GPIO.c:50:2
	ldr	r1, [sp]                @ 4-byte Reload
	str	r1, [r0]
	ldr	r0, __arm_cp.0_1
	.loc	3 51 2                  @ ../MYx/Src/MyMCU_GPIO.c:51:2
	str	r1, [r0]
	.loc	3 53 2                  @ ../MYx/Src/MyMCU_GPIO.c:53:2
	mov	r0, r1
	ldr	r1, [sp, #4]            @ 4-byte Reload
	bl	MyGPIO_Conf2Input
	.loc	3 58 1                  @ ../MYx/Src/MyMCU_GPIO.c:58:1
	add	sp, #8
	pop	{r7, pc}
.Ltmp1:
	.p2align	2
@ %bb.1:
	.loc	3 0 1 is_stmt 0         @ ../MYx/Src/MyMCU_GPIO.c:0:1
__arm_cp.0_0:
	.long	1073760332              @ 0x4000484c
.Lcpi_end0:
	.size	__arm_cp.0_0, .Lcpi_end0-__arm_cp.0_0
__arm_cp.0_1:
	.long	1073760384              @ 0x40004880
.Lcpi_end1:
	.size	__arm_cp.0_1, .Lcpi_end1-__arm_cp.0_1
.Lfunc_end0:
	.size	MyGPIO_Init, .Lfunc_end0-MyGPIO_Init
	.cfi_endproc
	.cantunwind
	.fnend
                                        @ -- End function
	.hidden	MyGPIO_Conf2Output      @ -- Begin function MyGPIO_Conf2Output
	.globl	MyGPIO_Conf2Output
	.p2align	2
	.type	MyGPIO_Conf2Output,%function
	.code	16                      @ @MyGPIO_Conf2Output
	.thumb_func
MyGPIO_Conf2Output:
.Lfunc_begin1:
	.loc	3 63 0 is_stmt 1        @ ../MYx/Src/MyMCU_GPIO.c:63:0
	.fnstart
	.cfi_startproc
@ %bb.0:
	.save	{r4, lr}
	push	{r4, lr}
	.cfi_def_cfa_offset 8
	.cfi_offset lr, -4
	.cfi_offset r4, -8
	.pad	#24
	sub	sp, #24
	.cfi_def_cfa_offset 32
	mov	r2, r1
	mov	r3, r0
	add	r4, sp, #20
	strb	r0, [r4]
	add	r0, sp, #16
	strb	r1, [r0]
.Ltmp2:
	.loc	3 75 25 prologue_end    @ ../MYx/Src/MyMCU_GPIO.c:75:25
	ldrb	r1, [r4]
	.loc	3 75 15 is_stmt 0       @ ../MYx/Src/MyMCU_GPIO.c:75:15
	lsls	r1, r1, #2
	ldr	r4, __arm_cp.1_0
	ldr	r1, [r4, r1]
	.loc	3 75 41                 @ ../MYx/Src/MyMCU_GPIO.c:75:41
	ldrb	r0, [r0]
	.loc	3 75 32                 @ ../MYx/Src/MyMCU_GPIO.c:75:32
	lsls	r0, r0, #1
	ldr	r4, __arm_cp.1_1
	ldrh	r0, [r4, r0]
	movs	r4, #1
	.loc	3 75 2                  @ ../MYx/Src/MyMCU_GPIO.c:75:2
	str	r0, [sp, #12]           @ 4-byte Spill
	mov	r0, r1
	ldr	r1, [sp, #12]           @ 4-byte Reload
	str	r2, [sp, #8]            @ 4-byte Spill
	mov	r2, r4
	str	r3, [sp, #4]            @ 4-byte Spill
	bl	GPIO_SetMode
	.loc	3 78 1 is_stmt 1        @ ../MYx/Src/MyMCU_GPIO.c:78:1
	add	sp, #24
	pop	{r4, pc}
.Ltmp3:
	.p2align	2
@ %bb.1:
	.loc	3 0 1 is_stmt 0         @ ../MYx/Src/MyMCU_GPIO.c:0:1
__arm_cp.1_0:
	.long	GPIO_Port
.Lcpi_end2:
	.size	__arm_cp.1_0, .Lcpi_end2-__arm_cp.1_0
__arm_cp.1_1:
	.long	GPIO_Pin
.Lcpi_end3:
	.size	__arm_cp.1_1, .Lcpi_end3-__arm_cp.1_1
.Lfunc_end1:
	.size	MyGPIO_Conf2Output, .Lfunc_end1-MyGPIO_Conf2Output
	.cfi_endproc
	.cantunwind
	.fnend
                                        @ -- End function
	.hidden	MyGPIO_Conf2Input       @ -- Begin function MyGPIO_Conf2Input
	.globl	MyGPIO_Conf2Input
	.p2align	2
	.type	MyGPIO_Conf2Input,%function
	.code	16                      @ @MyGPIO_Conf2Input
	.thumb_func
MyGPIO_Conf2Input:
.Lfunc_begin2:
	.loc	3 81 0 is_stmt 1        @ ../MYx/Src/MyMCU_GPIO.c:81:0
	.fnstart
	.cfi_startproc
@ %bb.0:
	.save	{r4, lr}
	push	{r4, lr}
	.cfi_def_cfa_offset 8
	.cfi_offset lr, -4
	.cfi_offset r4, -8
	.pad	#24
	sub	sp, #24
	.cfi_def_cfa_offset 32
	mov	r2, r1
	mov	r3, r0
	add	r4, sp, #20
	strb	r0, [r4]
	add	r0, sp, #16
	strb	r1, [r0]
.Ltmp4:
	.loc	3 92 25 prologue_end    @ ../MYx/Src/MyMCU_GPIO.c:92:25
	ldrb	r1, [r4]
	.loc	3 92 15 is_stmt 0       @ ../MYx/Src/MyMCU_GPIO.c:92:15
	lsls	r1, r1, #2
	ldr	r4, __arm_cp.2_0
	ldr	r1, [r4, r1]
	.loc	3 92 41                 @ ../MYx/Src/MyMCU_GPIO.c:92:41
	ldrb	r0, [r0]
	.loc	3 92 32                 @ ../MYx/Src/MyMCU_GPIO.c:92:32
	lsls	r0, r0, #1
	ldr	r4, __arm_cp.2_1
	ldrh	r0, [r4, r0]
	movs	r4, #0
	.loc	3 92 2                  @ ../MYx/Src/MyMCU_GPIO.c:92:2
	str	r0, [sp, #12]           @ 4-byte Spill
	mov	r0, r1
	ldr	r1, [sp, #12]           @ 4-byte Reload
	str	r2, [sp, #8]            @ 4-byte Spill
	mov	r2, r4
	str	r3, [sp, #4]            @ 4-byte Spill
	bl	GPIO_SetMode
	.loc	3 95 1 is_stmt 1        @ ../MYx/Src/MyMCU_GPIO.c:95:1
	add	sp, #24
	pop	{r4, pc}
.Ltmp5:
	.p2align	2
@ %bb.1:
	.loc	3 0 1 is_stmt 0         @ ../MYx/Src/MyMCU_GPIO.c:0:1
__arm_cp.2_0:
	.long	GPIO_Port
.Lcpi_end4:
	.size	__arm_cp.2_0, .Lcpi_end4-__arm_cp.2_0
__arm_cp.2_1:
	.long	GPIO_Pin
.Lcpi_end5:
	.size	__arm_cp.2_1, .Lcpi_end5-__arm_cp.2_1
.Lfunc_end2:
	.size	MyGPIO_Conf2Input, .Lfunc_end2-MyGPIO_Conf2Input
	.cfi_endproc
	.cantunwind
	.fnend
                                        @ -- End function
	.hidden	MyGPIO_ReadPin          @ -- Begin function MyGPIO_ReadPin
	.globl	MyGPIO_ReadPin
	.p2align	2
	.type	MyGPIO_ReadPin,%function
	.code	16                      @ @MyGPIO_ReadPin
	.thumb_func
MyGPIO_ReadPin:
.Lfunc_begin3:
	.loc	3 102 0 is_stmt 1       @ ../MYx/Src/MyMCU_GPIO.c:102:0
	.fnstart
	.cfi_startproc
@ %bb.0:
	.save	{r4, lr}
	push	{r4, lr}
	.cfi_def_cfa_offset 8
	.cfi_offset lr, -4
	.cfi_offset r4, -8
	.pad	#8
	sub	sp, #8
	.cfi_def_cfa_offset 16
	mov	r2, r1
	mov	r3, r0
	add	r4, sp, #4
	strb	r0, [r4]
	mov	r0, sp
	strb	r1, [r0]
.Ltmp6:
	.loc	3 109 9 prologue_end    @ ../MYx/Src/MyMCU_GPIO.c:109:9
	ldrb	r1, [r4]
	lsls	r1, r1, #6
	ldrb	r0, [r0]
	lsls	r0, r0, #2
	adds	r0, r1, r0
	ldr	r1, __arm_cp.3_0
	ldr	r0, [r0, r1]
	.loc	3 109 2 is_stmt 0       @ ../MYx/Src/MyMCU_GPIO.c:109:2
	uxtb	r0, r0
	add	sp, #8
	pop	{r4, pc}
.Ltmp7:
	.p2align	2
@ %bb.1:
	.loc	3 0 2                   @ ../MYx/Src/MyMCU_GPIO.c:0:2
__arm_cp.3_0:
	.long	1073760256              @ 0x40004800
.Lcpi_end6:
	.size	__arm_cp.3_0, .Lcpi_end6-__arm_cp.3_0
.Lfunc_end3:
	.size	MyGPIO_ReadPin, .Lfunc_end3-MyGPIO_ReadPin
	.cfi_endproc
	.cantunwind
	.fnend
                                        @ -- End function
	.hidden	MyGPIO_WritePin         @ -- Begin function MyGPIO_WritePin
	.globl	MyGPIO_WritePin
	.p2align	2
	.type	MyGPIO_WritePin,%function
	.code	16                      @ @MyGPIO_WritePin
	.thumb_func
MyGPIO_WritePin:
.Lfunc_begin4:
	.loc	3 115 0 is_stmt 1       @ ../MYx/Src/MyMCU_GPIO.c:115:0
	.fnstart
	.cfi_startproc
@ %bb.0:
	.save	{r4, r5, r6, lr}
	push	{r4, r5, r6, lr}
	.cfi_def_cfa_offset 16
	.cfi_offset lr, -4
	.cfi_offset r6, -8
	.cfi_offset r5, -12
	.cfi_offset r4, -16
	.pad	#12
	sub	sp, #12
	.cfi_def_cfa_offset 28
	mov	r3, r2
	mov	r4, r1
	mov	r5, r0
	add	r6, sp, #8
	strb	r0, [r6]
	add	r0, sp, #4
	strb	r1, [r0]
	mov	r0, sp
	strb	r2, [r0]
.Ltmp8:
	.loc	3 122 6 prologue_end    @ ../MYx/Src/MyMCU_GPIO.c:122:6
	ldrb	r0, [r0]
.Ltmp9:
	.loc	3 122 6 is_stmt 0       @ ../MYx/Src/MyMCU_GPIO.c:122:6
	cmp	r0, #1
	bne	.LBB4_2
	b	.LBB4_1
.LBB4_1:
	.loc	3 0 6                   @ ../MYx/Src/MyMCU_GPIO.c:0:6
	add	r0, sp, #8
.Ltmp10:
	.loc	3 123 3 is_stmt 1       @ ../MYx/Src/MyMCU_GPIO.c:123:3
	ldrb	r0, [r0]
	lsls	r0, r0, #6
	add	r1, sp, #4
	ldrb	r1, [r1]
	lsls	r1, r1, #2
	adds	r0, r0, r1
	ldr	r1, __arm_cp.4_0
	movs	r2, #1
	str	r2, [r0, r1]
	b	.LBB4_3
.LBB4_2:
	.loc	3 0 3 is_stmt 0         @ ../MYx/Src/MyMCU_GPIO.c:0:3
	add	r0, sp, #8
	.loc	3 125 3 is_stmt 1       @ ../MYx/Src/MyMCU_GPIO.c:125:3
	ldrb	r0, [r0]
	lsls	r0, r0, #6
	add	r1, sp, #4
	ldrb	r1, [r1]
	lsls	r1, r1, #2
	adds	r0, r0, r1
	ldr	r1, __arm_cp.4_0
	movs	r2, #0
	str	r2, [r0, r1]
	b	.LBB4_3
.Ltmp11:
.LBB4_3:
	.loc	3 128 1                 @ ../MYx/Src/MyMCU_GPIO.c:128:1
	add	sp, #12
	pop	{r4, r5, r6, pc}
.Ltmp12:
	.p2align	2
@ %bb.4:
	.loc	3 0 1 is_stmt 0         @ ../MYx/Src/MyMCU_GPIO.c:0:1
__arm_cp.4_0:
	.long	1073760256              @ 0x40004800
.Lcpi_end7:
	.size	__arm_cp.4_0, .Lcpi_end7-__arm_cp.4_0
.Lfunc_end4:
	.size	MyGPIO_WritePin, .Lfunc_end4-MyGPIO_WritePin
	.cfi_endproc
	.cantunwind
	.fnend
                                        @ -- End function
	.hidden	MyGPIO_CLI_WritePin     @ -- Begin function MyGPIO_CLI_WritePin
	.globl	MyGPIO_CLI_WritePin
	.p2align	1
	.type	MyGPIO_CLI_WritePin,%function
	.code	16                      @ @MyGPIO_CLI_WritePin
	.thumb_func
MyGPIO_CLI_WritePin:
.Lfunc_begin5:
	.loc	3 132 0 is_stmt 1       @ ../MYx/Src/MyMCU_GPIO.c:132:0
	.fnstart
	.cfi_startproc
@ %bb.0:
	.save	{r7, lr}
	push	{r7, lr}
	.cfi_def_cfa_offset 8
	.cfi_offset lr, -4
	.cfi_offset r7, -8
	.pad	#24
	sub	sp, #24
	.cfi_def_cfa_offset 32
	movs	r0, #0
.Ltmp13:
	.loc	3 133 42 prologue_end   @ ../MYx/Src/MyMCU_GPIO.c:133:42
	bl	MyCLI_UnsignedCommandArgument
	add	r1, sp, #20
	.loc	3 133 18 is_stmt 0      @ ../MYx/Src/MyMCU_GPIO.c:133:18
	strb	r0, [r1]
	movs	r0, #1
	.loc	3 134 39 is_stmt 1      @ ../MYx/Src/MyMCU_GPIO.c:134:39
	str	r1, [sp, #8]            @ 4-byte Spill
	bl	MyCLI_UnsignedCommandArgument
	add	r1, sp, #16
	.loc	3 134 17 is_stmt 0      @ ../MYx/Src/MyMCU_GPIO.c:134:17
	strb	r0, [r1]
	movs	r0, #2
	.loc	3 135 39 is_stmt 1      @ ../MYx/Src/MyMCU_GPIO.c:135:39
	str	r1, [sp, #4]            @ 4-byte Spill
	bl	MyCLI_UnsignedCommandArgument
	add	r1, sp, #12
	.loc	3 135 16 is_stmt 0      @ ../MYx/Src/MyMCU_GPIO.c:135:16
	strb	r0, [r1]
	.loc	3 137 25 is_stmt 1      @ ../MYx/Src/MyMCU_GPIO.c:137:25
	ldrb	r0, [r1]
	.loc	3 137 12 is_stmt 0      @ ../MYx/Src/MyMCU_GPIO.c:137:12
	str	r1, [sp]                @ 4-byte Spill
	bl	int2str
	.loc	3 137 2                 @ ../MYx/Src/MyMCU_GPIO.c:137:2
	bl	My_printf
	.loc	3 139 18 is_stmt 1      @ ../MYx/Src/MyMCU_GPIO.c:139:18
	ldr	r0, [sp, #8]            @ 4-byte Reload
	ldrb	r0, [r0]
	.loc	3 139 23 is_stmt 0      @ ../MYx/Src/MyMCU_GPIO.c:139:23
	ldr	r1, [sp, #4]            @ 4-byte Reload
	ldrb	r1, [r1]
	.loc	3 139 27                @ ../MYx/Src/MyMCU_GPIO.c:139:27
	ldr	r2, [sp]                @ 4-byte Reload
	ldrb	r2, [r2]
	.loc	3 139 2                 @ ../MYx/Src/MyMCU_GPIO.c:139:2
	bl	MyGPIO_WritePin
	.loc	3 140 1 is_stmt 1       @ ../MYx/Src/MyMCU_GPIO.c:140:1
	add	sp, #24
	pop	{r7, pc}
.Ltmp14:
.Lfunc_end5:
	.size	MyGPIO_CLI_WritePin, .Lfunc_end5-MyGPIO_CLI_WritePin
	.cfi_endproc
	.cantunwind
	.fnend
                                        @ -- End function
	.hidden	MyGPIO_CLI_ReadPin      @ -- Begin function MyGPIO_CLI_ReadPin
	.globl	MyGPIO_CLI_ReadPin
	.p2align	1
	.type	MyGPIO_CLI_ReadPin,%function
	.code	16                      @ @MyGPIO_CLI_ReadPin
	.thumb_func
MyGPIO_CLI_ReadPin:
.Lfunc_begin6:
	.loc	3 143 0                 @ ../MYx/Src/MyMCU_GPIO.c:143:0
	.fnstart
	.cfi_startproc
@ %bb.0:
	.save	{r7, lr}
	push	{r7, lr}
	.cfi_def_cfa_offset 8
	.cfi_offset lr, -4
	.cfi_offset r7, -8
	.pad	#16
	sub	sp, #16
	.cfi_def_cfa_offset 24
	movs	r0, #0
.Ltmp15:
	.loc	3 145 42 prologue_end   @ ../MYx/Src/MyMCU_GPIO.c:145:42
	bl	MyCLI_UnsignedCommandArgument
	add	r1, sp, #8
	.loc	3 145 18 is_stmt 0      @ ../MYx/Src/MyMCU_GPIO.c:145:18
	strb	r0, [r1]
	movs	r0, #1
	.loc	3 146 39 is_stmt 1      @ ../MYx/Src/MyMCU_GPIO.c:146:39
	str	r1, [sp]                @ 4-byte Spill
	bl	MyCLI_UnsignedCommandArgument
	add	r1, sp, #4
	.loc	3 146 17 is_stmt 0      @ ../MYx/Src/MyMCU_GPIO.c:146:17
	strb	r0, [r1]
	.loc	3 148 26 is_stmt 1      @ ../MYx/Src/MyMCU_GPIO.c:148:26
	ldr	r0, [sp]                @ 4-byte Reload
	ldrb	r0, [r0]
	.loc	3 148 31 is_stmt 0      @ ../MYx/Src/MyMCU_GPIO.c:148:31
	ldrb	r1, [r1]
	.loc	3 148 11                @ ../MYx/Src/MyMCU_GPIO.c:148:11
	bl	MyGPIO_ReadPin
	.loc	3 148 9                 @ ../MYx/Src/MyMCU_GPIO.c:148:9
	str	r0, [sp, #12]
	.loc	3 150 20 is_stmt 1      @ ../MYx/Src/MyMCU_GPIO.c:150:20
	ldr	r0, [sp, #12]
	.loc	3 150 12 is_stmt 0      @ ../MYx/Src/MyMCU_GPIO.c:150:12
	bl	int2str
	.loc	3 150 2                 @ ../MYx/Src/MyMCU_GPIO.c:150:2
	bl	My_printf
	.loc	3 152 1 is_stmt 1       @ ../MYx/Src/MyMCU_GPIO.c:152:1
	add	sp, #16
	pop	{r7, pc}
.Ltmp16:
.Lfunc_end6:
	.size	MyGPIO_CLI_ReadPin, .Lfunc_end6-MyGPIO_CLI_ReadPin
	.cfi_endproc
	.cantunwind
	.fnend
                                        @ -- End function
	.hidden	MyGPIO_CLI_Set2InputMode @ -- Begin function MyGPIO_CLI_Set2InputMode
	.globl	MyGPIO_CLI_Set2InputMode
	.p2align	1
	.type	MyGPIO_CLI_Set2InputMode,%function
	.code	16                      @ @MyGPIO_CLI_Set2InputMode
	.thumb_func
MyGPIO_CLI_Set2InputMode:
.Lfunc_begin7:
	.loc	3 155 0                 @ ../MYx/Src/MyMCU_GPIO.c:155:0
	.fnstart
	.cfi_startproc
@ %bb.0:
	.save	{r7, lr}
	push	{r7, lr}
	.cfi_def_cfa_offset 8
	.cfi_offset lr, -4
	.cfi_offset r7, -8
	.pad	#16
	sub	sp, #16
	.cfi_def_cfa_offset 24
	movs	r0, #0
.Ltmp17:
	.loc	3 156 42 prologue_end   @ ../MYx/Src/MyMCU_GPIO.c:156:42
	bl	MyCLI_UnsignedCommandArgument
	add	r1, sp, #12
	.loc	3 156 18 is_stmt 0      @ ../MYx/Src/MyMCU_GPIO.c:156:18
	strb	r0, [r1]
	movs	r0, #1
	.loc	3 157 39 is_stmt 1      @ ../MYx/Src/MyMCU_GPIO.c:157:39
	str	r1, [sp, #4]            @ 4-byte Spill
	bl	MyCLI_UnsignedCommandArgument
	add	r1, sp, #8
	.loc	3 157 17 is_stmt 0      @ ../MYx/Src/MyMCU_GPIO.c:157:17
	strb	r0, [r1]
	.loc	3 159 20 is_stmt 1      @ ../MYx/Src/MyMCU_GPIO.c:159:20
	ldr	r0, [sp, #4]            @ 4-byte Reload
	ldrb	r0, [r0]
	.loc	3 159 25 is_stmt 0      @ ../MYx/Src/MyMCU_GPIO.c:159:25
	ldrb	r1, [r1]
	.loc	3 159 2                 @ ../MYx/Src/MyMCU_GPIO.c:159:2
	bl	MyGPIO_Conf2Input
	.loc	3 160 1 is_stmt 1       @ ../MYx/Src/MyMCU_GPIO.c:160:1
	add	sp, #16
	pop	{r7, pc}
.Ltmp18:
.Lfunc_end7:
	.size	MyGPIO_CLI_Set2InputMode, .Lfunc_end7-MyGPIO_CLI_Set2InputMode
	.cfi_endproc
	.cantunwind
	.fnend
                                        @ -- End function
	.hidden	MyGPIO_CLI_Set2OutputMode @ -- Begin function MyGPIO_CLI_Set2OutputMode
	.globl	MyGPIO_CLI_Set2OutputMode
	.p2align	1
	.type	MyGPIO_CLI_Set2OutputMode,%function
	.code	16                      @ @MyGPIO_CLI_Set2OutputMode
	.thumb_func
MyGPIO_CLI_Set2OutputMode:
.Lfunc_begin8:
	.loc	3 163 0                 @ ../MYx/Src/MyMCU_GPIO.c:163:0
	.fnstart
	.cfi_startproc
@ %bb.0:
	.save	{r7, lr}
	push	{r7, lr}
	.cfi_def_cfa_offset 8
	.cfi_offset lr, -4
	.cfi_offset r7, -8
	.pad	#16
	sub	sp, #16
	.cfi_def_cfa_offset 24
	movs	r0, #0
.Ltmp19:
	.loc	3 164 42 prologue_end   @ ../MYx/Src/MyMCU_GPIO.c:164:42
	bl	MyCLI_UnsignedCommandArgument
	add	r1, sp, #12
	.loc	3 164 18 is_stmt 0      @ ../MYx/Src/MyMCU_GPIO.c:164:18
	strb	r0, [r1]
	movs	r0, #1
	.loc	3 165 39 is_stmt 1      @ ../MYx/Src/MyMCU_GPIO.c:165:39
	str	r1, [sp, #4]            @ 4-byte Spill
	bl	MyCLI_UnsignedCommandArgument
	add	r1, sp, #8
	.loc	3 165 17 is_stmt 0      @ ../MYx/Src/MyMCU_GPIO.c:165:17
	strb	r0, [r1]
	.loc	3 167 21 is_stmt 1      @ ../MYx/Src/MyMCU_GPIO.c:167:21
	ldr	r0, [sp, #4]            @ 4-byte Reload
	ldrb	r0, [r0]
	.loc	3 167 26 is_stmt 0      @ ../MYx/Src/MyMCU_GPIO.c:167:26
	ldrb	r1, [r1]
	.loc	3 167 2                 @ ../MYx/Src/MyMCU_GPIO.c:167:2
	bl	MyGPIO_Conf2Output
	.loc	3 168 1 is_stmt 1       @ ../MYx/Src/MyMCU_GPIO.c:168:1
	add	sp, #16
	pop	{r7, pc}
.Ltmp20:
.Lfunc_end8:
	.size	MyGPIO_CLI_Set2OutputMode, .Lfunc_end8-MyGPIO_CLI_Set2OutputMode
	.cfi_endproc
	.cantunwind
	.fnend
                                        @ -- End function
	.hidden	GPIO_Port               @ @GPIO_Port
	.type	GPIO_Port,%object
	.section	.data.GPIO_Port,"aw",%progbits
	.globl	GPIO_Port
	.p2align	2
GPIO_Port:
.LGPIO_Port$local:
	.long	1073758208
	.long	1073758272
	.long	1073758336
	.long	1073758400
	.size	GPIO_Port, 16

	.hidden	GPIO_Pin                @ @GPIO_Pin
	.type	GPIO_Pin,%object
	.section	.data.GPIO_Pin,"aw",%progbits
	.globl	GPIO_Pin
	.p2align	1
GPIO_Pin:
.LGPIO_Pin$local:
	.short	1                       @ 0x1
	.short	2                       @ 0x2
	.short	4                       @ 0x4
	.short	8                       @ 0x8
	.short	16                      @ 0x10
	.short	32                      @ 0x20
	.short	64                      @ 0x40
	.short	128                     @ 0x80
	.short	256                     @ 0x100
	.short	512                     @ 0x200
	.short	1024                    @ 0x400
	.short	2048                    @ 0x800
	.short	4096                    @ 0x1000
	.short	8192                    @ 0x2000
	.short	16384                   @ 0x4000
	.short	32768                   @ 0x8000
	.short	0                       @ 0x0
	.size	GPIO_Pin, 34

	.section	".note.GNU-stack","",%progbits
	.eabi_attribute	30, 6	@ Tag_ABI_optimization_goals
	.ARM_attribute	16, 1	@ Tag_AV_eba