	.text
	.syntax unified
	.eabi_attribute	67, "2.09"	@ Tag_conformance
	.cpu	cortex-m23
	.eabi_attribute	6, 16	@ Tag_CPU_arch
	.eabi_attribute	7, 77	@ Tag_CPU_arch_profile
	.eabi_attribute	8, 0	@ Tag_ARM_ISA_use
	.eabi_attribute	9, 3	@ Tag_THUMB_ISA_use
	.eabi_attribute	34, 0	@ Tag_CPU_unaligned_access
	.eabi_attribute	17, 1	@ Tag_ABI_PCS_GOT_use
	.eabi_attribute	20, 2	@ Tag_ABI_FP_denormal
	.eabi_attribute	21, 0	@ Tag_ABI_FP_exceptions
	.eabi_attribute	23, 1	@ Tag_ABI_FP_number_model
	.eabi_attribute	24, 1	@ Tag_ABI_align_needed
	.eabi_attribute	25, 1	@ Tag_ABI_align_preserved
	.eabi_attribute	38, 1	@ Tag_ABI_FP_16bit_format
	.eabi_attribute	18, 2	@ Tag_ABI_PCS_wchar_t
	.eabi_attribute	26, 1	@ Tag_ABI_enum_size
	.eabi_attribute	14, 0	@ Tag_ABI_PCS_R9_use
	.file	"retarget.c"
	.file	1 "C:\\" "Keil_v5\\ARM\\ARMCLANG\\Bin\\..\\include\\stdio.h"
	.file	2 "C:\\Work\\Keil WorkSpace\\Furbo\\Keil" "../../Library/Nuvoton/M251_252_Series/StdDriver/src/retarget.c"
	.file	3 "C:\\" "Keil_v5\\ARM\\ARMCLANG\\Bin\\..\\include\\stdint.h"
	.file	4 "C:\\Work\\Keil WorkSpace\\Furbo\\Keil" "../../Library/Nuvoton/M251_252_Series/Device/Nuvoton/M251/Include/M251.h"
	.file	5 "C:\\Work\\Keil WorkSpace\\Furbo\\Keil" "../../Library/Nuvoton/M251_252_Series/Device/Nuvoton/M251/Include/uart_reg.h"
	.hidden	SH_Return               @ -- Begin function SH_Return
	.globl	SH_Return
	.p2align	1
	.type	SH_Return,%function
	.code	16                      @ @SH_Return
	.thumb_func
SH_Return:
.Lfunc_begin0:
	.loc	2 168 0                 @ ../../Library/Nuvoton/M251_252_Series/StdDriver/src/retarget.c:168:0
	.fnstart
	.cfi_sections .debug_frame
	.cfi_startproc
@ %bb.0:
	.pad	#12
	sub	sp, #12
	.cfi_def_cfa_offset 12
	str	r0, [sp, #8]
	str	r1, [sp, #4]
	str	r2, [sp]
	movs	r0, #0
.Ltmp0:
	.loc	2 169 5 prologue_end    @ ../../Library/Nuvoton/M251_252_Series/StdDriver/src/retarget.c:169:5
	add	sp, #12
	bx	lr
.Ltmp1:
.Lfunc_end0:
	.size	SH_Return, .Lfunc_end0-SH_Return
	.cfi_endproc
	.cantunwind
	.fnend
                                        @ -- End function
	.hidden	ProcessHardFault        @ -- Begin function ProcessHardFault
	.weak	ProcessHardFault
	.p2align	2
	.type	ProcessHardFault,%function
	.code	16                      @ @ProcessHardFault
	.thumb_func
ProcessHardFault:
.Lfunc_begin1:
	.loc	2 182 0                 @ ../../Library/Nuvoton/M251_252_Series/StdDriver/src/retarget.c:182:0
	.fnstart
	.cfi_startproc
@ %bb.0:
	.save	{r7, lr}
	push	{r7, lr}
	.cfi_def_cfa_offset 8
	.cfi_offset lr, -4
	.cfi_offset r7, -8
	.pad	#32
	sub	sp, #32
	.cfi_def_cfa_offset 40
	str	r0, [sp, #24]
	str	r1, [sp, #20]
	str	r2, [sp, #16]
	add	r0, sp, #24
.Ltmp2:
	.loc	2 197 13 prologue_end   @ ../../Library/Nuvoton/M251_252_Series/StdDriver/src/retarget.c:197:13
	ldrb	r0, [r0]
	lsls	r0, r0, #29
	cmp	r0, #0
	bpl	.LBB1_2
	b	.LBB1_1
.LBB1_1:
.Ltmp3:
	.loc	2 199 30                @ ../../Library/Nuvoton/M251_252_Series/StdDriver/src/retarget.c:199:30
	ldr	r0, [sp, #16]
	.loc	2 199 16 is_stmt 0      @ ../../Library/Nuvoton/M251_252_Series/StdDriver/src/retarget.c:199:16
	str	r0, [sp, #12]
	.loc	2 200 9 is_stmt 1       @ ../../Library/Nuvoton/M251_252_Series/StdDriver/src/retarget.c:200:9
	b	.LBB1_3
.Ltmp4:
.LBB1_2:
	.loc	2 203 30                @ ../../Library/Nuvoton/M251_252_Series/StdDriver/src/retarget.c:203:30
	ldr	r0, [sp, #20]
	.loc	2 203 16 is_stmt 0      @ ../../Library/Nuvoton/M251_252_Series/StdDriver/src/retarget.c:203:16
	str	r0, [sp, #12]
	b	.LBB1_3
.Ltmp5:
.LBB1_3:
	.loc	2 220 12 is_stmt 1      @ ../../Library/Nuvoton/M251_252_Series/StdDriver/src/retarget.c:220:12
	ldr	r0, [sp, #12]
	ldr	r0, [r0, #24]
	ldrh	r0, [r0]
	.loc	2 220 10 is_stmt 0      @ ../../Library/Nuvoton/M251_252_Series/StdDriver/src/retarget.c:220:10
	str	r0, [sp, #8]
.Ltmp6:
	.loc	2 222 9 is_stmt 1       @ ../../Library/Nuvoton/M251_252_Series/StdDriver/src/retarget.c:222:9
	ldr	r0, [sp, #8]
	ldr	r1, __arm_cp.1_0
.Ltmp7:
	.loc	2 222 9 is_stmt 0       @ ../../Library/Nuvoton/M251_252_Series/StdDriver/src/retarget.c:222:9
	cmp	r0, r1
	bne	.LBB1_5
	b	.LBB1_4
.LBB1_4:
.Ltmp8:
	.loc	2 228 24 is_stmt 1      @ ../../Library/Nuvoton/M251_252_Series/StdDriver/src/retarget.c:228:24
	ldr	r0, __arm_cp.1_2
	movs	r1, #0
	str	r1, [r0]
	.loc	2 229 9                 @ ../../Library/Nuvoton/M251_252_Series/StdDriver/src/retarget.c:229:9
	ldr	r0, [sp, #12]
	.loc	2 229 15 is_stmt 0      @ ../../Library/Nuvoton/M251_252_Series/StdDriver/src/retarget.c:229:15
	ldr	r1, [r0, #24]
	adds	r1, r1, #2
	str	r1, [r0, #24]
	.loc	2 230 16 is_stmt 1      @ ../../Library/Nuvoton/M251_252_Series/StdDriver/src/retarget.c:230:16
	ldr	r0, [sp, #24]
	.loc	2 230 9 is_stmt 0       @ ../../Library/Nuvoton/M251_252_Series/StdDriver/src/retarget.c:230:9
	str	r0, [sp, #28]
	b	.LBB1_9
.Ltmp9:
.LBB1_5:
	.loc	2 233 5 is_stmt 1       @ ../../Library/Nuvoton/M251_252_Series/StdDriver/src/retarget.c:233:5
	ldr	r0, __arm_cp.1_1
	bl	printf
	.loc	2 234 15                @ ../../Library/Nuvoton/M251_252_Series/StdDriver/src/retarget.c:234:15
	ldr	r1, [sp, #12]
	.loc	2 234 5 is_stmt 0       @ ../../Library/Nuvoton/M251_252_Series/StdDriver/src/retarget.c:234:5
	str	r0, [sp, #4]            @ 4-byte Spill
	mov	r0, r1
	bl	DumpStack
	.loc	2 237 5 is_stmt 1       @ ../../Library/Nuvoton/M251_252_Series/StdDriver/src/retarget.c:237:5
	b	.LBB1_6
.LBB1_6:                                @ =>This Inner Loop Header: Depth=1
	.loc	2 237 18 is_stmt 0      @ ../../Library/Nuvoton/M251_252_Series/StdDriver/src/retarget.c:237:18
	ldr	r0, [sp, #12]
	.loc	2 237 17                @ ../../Library/Nuvoton/M251_252_Series/StdDriver/src/retarget.c:237:17
	ldr	r0, [r0]
	movs	r1, #1
	.loc	2 237 15                @ ../../Library/Nuvoton/M251_252_Series/StdDriver/src/retarget.c:237:15
	orrs	r0, r1
	.loc	2 237 5                 @ ../../Library/Nuvoton/M251_252_Series/StdDriver/src/retarget.c:237:5
	cmp	r0, #0
	beq	.LBB1_8
	b	.LBB1_7
.LBB1_7:                                @   in Loop: Header=BB1_6 Depth=1
	b	.LBB1_6
.LBB1_8:
	.loc	2 239 12 is_stmt 1      @ ../../Library/Nuvoton/M251_252_Series/StdDriver/src/retarget.c:239:12
	ldr	r0, [sp, #24]
	.loc	2 239 5 is_stmt 0       @ ../../Library/Nuvoton/M251_252_Series/StdDriver/src/retarget.c:239:5
	str	r0, [sp, #28]
	b	.LBB1_9
.LBB1_9:
	.loc	2 240 1 is_stmt 1       @ ../../Library/Nuvoton/M251_252_Series/StdDriver/src/retarget.c:240:1
	ldr	r0, [sp, #28]
	add	sp, #32
	pop	{r7, pc}
.Ltmp10:
	.p2align	2
@ %bb.10:
	.loc	2 0 1 is_stmt 0         @ ../../Library/Nuvoton/M251_252_Series/StdDriver/src/retarget.c:0:1
__arm_cp.1_0:
	.long	48811                   @ 0xbeab
.Lcpi_end0:
	.size	__arm_cp.1_0, .Lcpi_end0-__arm_cp.1_0
__arm_cp.1_1:
	.long	.L.str
.Lcpi_end1:
	.size	__arm_cp.1_1, .Lcpi_end1-__arm_cp.1_1
__arm_cp.1_2:
	.long	g_ICE_Conneced
.Lcpi_end2:
	.size	__arm_cp.1_2, .Lcpi_end2-__arm_cp.1_2
.Lfunc_end1:
	.size	ProcessHardFault, .Lfunc_end1-ProcessHardFault
	.cfi_endproc
	.cantunwind
	.fnend
                                        @ -- End function
	.p2align	1               @ -- Begin function DumpStack
	.type	DumpStack,%function
	.code	16                      @ @DumpStack
	.thumb_func
DumpStack:
.Lfunc_begin2:
	.loc	2 95 0 is_stmt 1        @ ../../Library/Nuvoton/M251_252_Series/StdDriver/src/retarget.c:95:0
	.fnstart
	.cfi_startproc
@ %bb.0:
	.pad	#4
	sub	sp, #4
	.cfi_def_cfa_offset 4
	str	r0, [sp]
.Ltmp11:
	.loc	2 106 1 prologue_end    @ ../../Library/Nuvoton/M251_252_Series/StdDriver/src/retarget.c:106:1
	add	sp, #4
	bx	lr
.Ltmp12:
.Lfunc_end2:
	.size	DumpStack, .Lfunc_end2-DumpStack
	.cfi_endproc
	.cantunwind
	.fnend
                                        @ -- End function
	.hidden	SendChar_ToUART         @ -- Begin function SendChar_ToUART
	.globl	SendChar_ToUART
	.p2align	2
	.type	SendChar_ToUART,%function
	.code	16                      @ @SendChar_ToUART
	.thumb_func
SendChar_ToUART:
.Lfunc_begin3:
	.loc	2 254 0                 @ ../../Library/Nuvoton/M251_252_Series/StdDriver/src/retarget.c:254:0
	.fnstart
	.cfi_startproc
@ %bb.0:
	.pad	#4
	sub	sp, #4
	.cfi_def_cfa_offset 4
	str	r0, [sp]
.Ltmp13:
	.loc	2 255 5 prologue_end    @ ../../Library/Nuvoton/M251_252_Series/StdDriver/src/retarget.c:255:5
	b	.LBB3_1
.LBB3_1:                                @ =>This Inner Loop Header: Depth=1
	.loc	2 0 5 is_stmt 0         @ ../../Library/Nuvoton/M251_252_Series/StdDriver/src/retarget.c:0:5
	ldr	r0, __arm_cp.3_0
	.loc	2 255 24                @ ../../Library/Nuvoton/M251_252_Series/StdDriver/src/retarget.c:255:24
	ldr	r0, [r0]
	.loc	2 255 5                 @ ../../Library/Nuvoton/M251_252_Series/StdDriver/src/retarget.c:255:5
	lsls	r0, r0, #8
	cmp	r0, #0
	bpl	.LBB3_3
	b	.LBB3_2
.LBB3_2:                                @   in Loop: Header=BB3_1 Depth=1
	b	.LBB3_1
.LBB3_3:
	.loc	2 0 5                   @ ../../Library/Nuvoton/M251_252_Series/StdDriver/src/retarget.c:0:5
	mov	r0, sp
.Ltmp14:
	.loc	2 257 15 is_stmt 1      @ ../../Library/Nuvoton/M251_252_Series/StdDriver/src/retarget.c:257:15
	ldrb	r0, [r0]
.Ltmp15:
	.loc	2 257 9 is_stmt 0       @ ../../Library/Nuvoton/M251_252_Series/StdDriver/src/retarget.c:257:9
	cmp	r0, #10
	bne	.LBB3_8
	b	.LBB3_4
.LBB3_4:
	.loc	2 0 9                   @ ../../Library/Nuvoton/M251_252_Series/StdDriver/src/retarget.c:0:9
	ldr	r0, __arm_cp.3_1
	movs	r1, #13
.Ltmp16:
	.loc	2 259 19 is_stmt 1      @ ../../Library/Nuvoton/M251_252_Series/StdDriver/src/retarget.c:259:19
	str	r1, [r0]
	.loc	2 260 9                 @ ../../Library/Nuvoton/M251_252_Series/StdDriver/src/retarget.c:260:9
	b	.LBB3_5
.LBB3_5:                                @ =>This Inner Loop Header: Depth=1
	.loc	2 0 9 is_stmt 0         @ ../../Library/Nuvoton/M251_252_Series/StdDriver/src/retarget.c:0:9
	ldr	r0, __arm_cp.3_0
	.loc	2 260 28                @ ../../Library/Nuvoton/M251_252_Series/StdDriver/src/retarget.c:260:28
	ldr	r0, [r0]
	.loc	2 260 9                 @ ../../Library/Nuvoton/M251_252_Series/StdDriver/src/retarget.c:260:9
	lsls	r0, r0, #8
	cmp	r0, #0
	bpl	.LBB3_7
	b	.LBB3_6
.LBB3_6:                                @   in Loop: Header=BB3_5 Depth=1
	b	.LBB3_5
.LBB3_7:
	.loc	2 262 5 is_stmt 1       @ ../../Library/Nuvoton/M251_252_Series/StdDriver/src/retarget.c:262:5
	b	.LBB3_8
.Ltmp17:
.LBB3_8:
	.loc	2 264 30                @ ../../Library/Nuvoton/M251_252_Series/StdDriver/src/retarget.c:264:30
	ldr	r0, [sp]
	ldr	r1, __arm_cp.3_1
	.loc	2 264 18 is_stmt 0      @ ../../Library/Nuvoton/M251_252_Series/StdDriver/src/retarget.c:264:18
	str	r0, [r1]
	.loc	2 265 1 is_stmt 1       @ ../../Library/Nuvoton/M251_252_Series/StdDriver/src/retarget.c:265:1
	add	sp, #4
	bx	lr
.Ltmp18:
	.p2align	2
@ %bb.9:
	.loc	2 0 1 is_stmt 0         @ ../../Library/Nuvoton/M251_252_Series/StdDriver/src/retarget.c:0:1
__arm_cp.3_0:
	.long	1074200600              @ 0x40070018
.Lcpi_end3:
	.size	__arm_cp.3_0, .Lcpi_end3-__arm_cp.3_0
__arm_cp.3_1:
	.long	1074200576              @ 0x40070000
.Lcpi_end4:
	.size	__arm_cp.3_1, .Lcpi_end4-__arm_cp.3_1
.Lfunc_end3:
	.size	SendChar_ToUART, .Lfunc_end3-SendChar_ToUART
	.cfi_endproc
	.cantunwind
	.fnend
                                        @ -- End function
	.hidden	SendChar                @ -- Begin function SendChar
	.weak	SendChar
	.p2align	1
	.type	SendChar,%function
	.code	16                      @ @SendChar
	.thumb_func
SendChar:
.Lfunc_begin4:
	.loc	2 342 0 is_stmt 1       @ ../../Library/Nuvoton/M251_252_Series/StdDriver/src/retarget.c:342:0
	.fnstart
	.cfi_startproc
@ %bb.0:
	.save	{r7, lr}
	push	{r7, lr}
	.cfi_def_cfa_offset 8
	.cfi_offset lr, -4
	.cfi_offset r7, -8
	.pad	#8
	sub	sp, #8
	.cfi_def_cfa_offset 16
	str	r0, [sp, #4]
.Ltmp19:
	.loc	2 374 21 prologue_end   @ ../../Library/Nuvoton/M251_252_Series/StdDriver/src/retarget.c:374:21
	ldr	r0, [sp, #4]
	.loc	2 374 5 is_stmt 0       @ ../../Library/Nuvoton/M251_252_Series/StdDriver/src/retarget.c:374:5
	bl	SendChar_ToUART
	.loc	2 376 1 is_stmt 1       @ ../../Library/Nuvoton/M251_252_Series/StdDriver/src/retarget.c:376:1
	add	sp, #8
	pop	{r7, pc}
.Ltmp20:
.Lfunc_end4:
	.size	SendChar, .Lfunc_end4-SendChar
	.cfi_endproc
	.cantunwind
	.fnend
                                        @ -- End function
	.hidden	GetChar                 @ -- Begin function GetChar
	.globl	GetChar
	.p2align	2
	.type	GetChar,%function
	.code	16                      @ @GetChar
	.thumb_func
GetChar:
.Lfunc_begin5:
	.loc	2 389 0                 @ ../../Library/Nuvoton/M251_252_Series/StdDriver/src/retarget.c:389:0
	.fnstart
	.cfi_startproc
@ %bb.0:
	.loc	2 441 5 prologue_end    @ ../../Library/Nuvoton/M251_252_Series/StdDriver/src/retarget.c:441:5
	b	.LBB5_1
.LBB5_1:                                @ =>This Inner Loop Header: Depth=1
	.loc	2 0 5 is_stmt 0         @ ../../Library/Nuvoton/M251_252_Series/StdDriver/src/retarget.c:0:5
	ldr	r0, __arm_cp.5_0
.Ltmp21:
	.loc	2 443 26 is_stmt 1      @ ../../Library/Nuvoton/M251_252_Series/StdDriver/src/retarget.c:443:26
	ldr	r0, [r0]
.Ltmp22:
	.loc	2 443 13 is_stmt 0      @ ../../Library/Nuvoton/M251_252_Series/StdDriver/src/retarget.c:443:13
	lsls	r0, r0, #17
	cmp	r0, #0
	bmi	.LBB5_3
	b	.LBB5_2
.LBB5_2:
	.loc	2 0 13                  @ ../../Library/Nuvoton/M251_252_Series/StdDriver/src/retarget.c:0:13
	ldr	r0, __arm_cp.5_1
.Ltmp23:
	.loc	2 445 39 is_stmt 1      @ ../../Library/Nuvoton/M251_252_Series/StdDriver/src/retarget.c:445:39
	ldr	r0, [r0]
	.loc	2 445 13 is_stmt 0      @ ../../Library/Nuvoton/M251_252_Series/StdDriver/src/retarget.c:445:13
	uxtb	r0, r0
	bx	lr
.Ltmp24:
.LBB5_3:                                @   in Loop: Header=BB5_1 Depth=1
	.loc	2 441 5 is_stmt 1       @ ../../Library/Nuvoton/M251_252_Series/StdDriver/src/retarget.c:441:5
	b	.LBB5_1
.Ltmp25:
	.p2align	2
@ %bb.4:
	.loc	2 0 5 is_stmt 0         @ ../../Library/Nuvoton/M251_252_Series/StdDriver/src/retarget.c:0:5
__arm_cp.5_0:
	.long	1074200600              @ 0x40070018
.Lcpi_end5:
	.size	__arm_cp.5_0, .Lcpi_end5-__arm_cp.5_0
__arm_cp.5_1:
	.long	1074200576              @ 0x40070000
.Lcpi_end6:
	.size	__arm_cp.5_1, .Lcpi_end6-__arm_cp.5_1
.Lfunc_end5:
	.size	GetChar, .Lfunc_end5-GetChar
	.cfi_endproc
	.cantunwind
	.fnend
                                        @ -- End function
	.hidden	kbhit                   @ -- Begin function kbhit
	.globl	kbhit
	.p2align	2
	.type	kbhit,%function
	.code	16                      @ @kbhit
	.thumb_func
kbhit:
.Lfunc_begin6:
	.loc	2 464 0 is_stmt 1       @ ../../Library/Nuvoton/M251_252_Series/StdDriver/src/retarget.c:464:0
	.fnstart
	.cfi_startproc
@ %bb.0:
	ldr	r0, __arm_cp.6_0
.Ltmp26:
	.loc	2 465 27 prologue_end   @ ../../Library/Nuvoton/M251_252_Series/StdDriver/src/retarget.c:465:27
	ldr	r0, [r0]
	movw	r1, #16384
	.loc	2 465 35 is_stmt 0      @ ../../Library/Nuvoton/M251_252_Series/StdDriver/src/retarget.c:465:35
	ands	r0, r1
	.loc	2 465 63                @ ../../Library/Nuvoton/M251_252_Series/StdDriver/src/retarget.c:465:63
	lsrs	r0, r0, #14
	.loc	2 465 5                 @ ../../Library/Nuvoton/M251_252_Series/StdDriver/src/retarget.c:465:5
	bx	lr
.Ltmp27:
	.p2align	2
@ %bb.1:
	.loc	2 0 5                   @ ../../Library/Nuvoton/M251_252_Series/StdDriver/src/retarget.c:0:5
__arm_cp.6_0:
	.long	1074200600              @ 0x40070018
.Lcpi_end7:
	.size	__arm_cp.6_0, .Lcpi_end7-__arm_cp.6_0
.Lfunc_end6:
	.size	kbhit, .Lfunc_end6-kbhit
	.cfi_endproc
	.cantunwind
	.fnend
                                        @ -- End function
	.hidden	IsDebugFifoEmpty        @ -- Begin function IsDebugFifoEmpty
	.globl	IsDebugFifoEmpty
	.p2align	2
	.type	IsDebugFifoEmpty,%function
	.code	16                      @ @IsDebugFifoEmpty
	.thumb_func
IsDebugFifoEmpty:
.Lfunc_begin7:
	.loc	2 480 0 is_stmt 1       @ ../../Library/Nuvoton/M251_252_Series/StdDriver/src/retarget.c:480:0
	.fnstart
	.cfi_startproc
@ %bb.0:
	ldr	r0, __arm_cp.7_0
.Ltmp28:
	.loc	2 481 26 prologue_end   @ ../../Library/Nuvoton/M251_252_Series/StdDriver/src/retarget.c:481:26
	ldr	r0, [r0]
	movs	r1, #1
	lsls	r1, r1, #28
	.loc	2 481 34 is_stmt 0      @ ../../Library/Nuvoton/M251_252_Series/StdDriver/src/retarget.c:481:34
	ands	r0, r1
	.loc	2 481 63                @ ../../Library/Nuvoton/M251_252_Series/StdDriver/src/retarget.c:481:63
	lsrs	r0, r0, #28
	.loc	2 481 5                 @ ../../Library/Nuvoton/M251_252_Series/StdDriver/src/retarget.c:481:5
	bx	lr
.Ltmp29:
	.p2align	2
@ %bb.1:
	.loc	2 0 5                   @ ../../Library/Nuvoton/M251_252_Series/StdDriver/src/retarget.c:0:5
__arm_cp.7_0:
	.long	1074200600              @ 0x40070018
.Lcpi_end8:
	.size	__arm_cp.7_0, .Lcpi_end8-__arm_cp.7_0
.Lfunc_end7:
	.size	IsDebugFifoEmpty, .Lfunc_end7-IsDebugFifoEmpty
	.cfi_endproc
	.cantunwind
	.fnend
                                        @ -- End function
	.hidden	_ttywrch                @ -- Begin function _ttywrch
	.globl	_ttywrch
	.p2align	1
	.type	_ttywrch,%function
	.code	16                      @ @_ttywrch
	.thumb_func
_ttywrch:
.Lfunc_begin8:
	.loc	2 495 0 is_stmt 1       @ ../../Library/Nuvoton/M251_252_Series/StdDriver/src/retarget.c:495:0
	.fnstart
	.cfi_startproc
@ %bb.0:
	.save	{r7, lr}
	push	{r7, lr}
	.cfi_def_cfa_offset 8
	.cfi_offset lr, -4
	.cfi_offset r7, -8
	.pad	#8
	sub	sp, #8
	.cfi_def_cfa_offset 16
	str	r0, [sp, #4]
.Ltmp30:
	.loc	2 496 14 prologue_end   @ ../../Library/Nuvoton/M251_252_Series/StdDriver/src/retarget.c:496:14
	ldr	r0, [sp, #4]
	.loc	2 496 5 is_stmt 0       @ ../../Library/Nuvoton/M251_252_Series/StdDriver/src/retarget.c:496:5
	bl	SendChar
	.loc	2 497 5 is_stmt 1       @ ../../Library/Nuvoton/M251_252_Series/StdDriver/src/retarget.c:497:5
	add	sp, #8
	pop	{r7, pc}
.Ltmp31:
.Lfunc_end8:
	.size	_ttywrch, .Lfunc_end8-_ttywrch
	.cfi_endproc
	.cantunwind
	.fnend
                                        @ -- End function
	.hidden	fputc                   @ -- Begin function fputc
	.globl	fputc
	.p2align	1
	.type	fputc,%function
	.code	16                      @ @fputc
	.thumb_func
fputc:
.Lfunc_begin9:
	.loc	2 519 0                 @ ../../Library/Nuvoton/M251_252_Series/StdDriver/src/retarget.c:519:0
	.fnstart
	.cfi_startproc
@ %bb.0:
	.save	{r7, lr}
	push	{r7, lr}
	.cfi_def_cfa_offset 8
	.cfi_offset lr, -4
	.cfi_offset r7, -8
	.pad	#8
	sub	sp, #8
	.cfi_def_cfa_offset 16
	str	r0, [sp, #4]
	str	r1, [sp]
.Ltmp32:
	.loc	2 520 14 prologue_end   @ ../../Library/Nuvoton/M251_252_Series/StdDriver/src/retarget.c:520:14
	ldr	r0, [sp, #4]
	.loc	2 520 5 is_stmt 0       @ ../../Library/Nuvoton/M251_252_Series/StdDriver/src/retarget.c:520:5
	bl	SendChar
	.loc	2 521 12 is_stmt 1      @ ../../Library/Nuvoton/M251_252_Series/StdDriver/src/retarget.c:521:12
	ldr	r0, [sp, #4]
	.loc	2 521 5 is_stmt 0       @ ../../Library/Nuvoton/M251_252_Series/StdDriver/src/retarget.c:521:5
	add	sp, #8
	pop	{r7, pc}
.Ltmp33:
.Lfunc_end9:
	.size	fputc, .Lfunc_end9-fputc
	.cfi_endproc
	.cantunwind
	.fnend
                                        @ -- End function
	.hidden	fgetc                   @ -- Begin function fgetc
	.globl	fgetc
	.p2align	1
	.type	fgetc,%function
	.code	16                      @ @fgetc
	.thumb_func
fgetc:
.Lfunc_begin10:
	.loc	2 574 0 is_stmt 1       @ ../../Library/Nuvoton/M251_252_Series/StdDriver/src/retarget.c:574:0
	.fnstart
	.cfi_startproc
@ %bb.0:
	.save	{r7, lr}
	push	{r7, lr}
	.cfi_def_cfa_offset 8
	.cfi_offset lr, -4
	.cfi_offset r7, -8
	.pad	#8
	sub	sp, #8
	.cfi_def_cfa_offset 16
	str	r0, [sp, #4]
.Ltmp34:
	.loc	2 575 18 prologue_end   @ ../../Library/Nuvoton/M251_252_Series/StdDriver/src/retarget.c:575:18
	bl	GetChar
	.loc	2 575 5 is_stmt 0       @ ../../Library/Nuvoton/M251_252_Series/StdDriver/src/retarget.c:575:5
	add	sp, #8
	pop	{r7, pc}
.Ltmp35:
.Lfunc_end10:
	.size	fgetc, .Lfunc_end10-fgetc
	.cfi_endproc
	.cantunwind
	.fnend
                                        @ -- End function
	.hidden	ferror                  @ -- Begin function ferror
	.globl	ferror
	.p2align	1
	.type	ferror,%function
	.code	16                      @ @ferror
	.thumb_func
ferror:
.Lfunc_begin11:
	.loc	2 594 0 is_stmt 1       @ ../../Library/Nuvoton/M251_252_Series/StdDriver/src/retarget.c:594:0
	.fnstart
	.cfi_startproc
@ %bb.0:
	.pad	#4
	sub	sp, #4
	.cfi_def_cfa_offset 4
	str	r0, [sp]
	movs	r0, #0
	mvns	r0, r0
.Ltmp36:
	.loc	2 595 5 prologue_end    @ ../../Library/Nuvoton/M251_252_Series/StdDriver/src/retarget.c:595:5
	add	sp, #4
	bx	lr
.Ltmp37:
.Lfunc_end11:
	.size	ferror, .Lfunc_end11-ferror
	.cfi_endproc
	.cantunwind
	.fnend
                                        @ -- End function
	.type	g_ICE_Conneced,%object  @ @g_ICE_Conneced
	.section	.data.g_ICE_Conneced,"aw",%progbits
	.p2align	2
g_ICE_Conneced:
	.long	1                       @ 0x1
	.size	g_ICE_Conneced, 4

	.type	.L.str,%object          @ @.str
	.section	.rodata.str1.1,"aMS",%progbits,1
.L.str:
	.asciz	"  HardFault!\n\n"
	.size	.L.str, 15

	.hidden	__stdout                @ @__stdout
	.type	__stdout,%object
	.section	.bss.__stdout,"aw",%nobits
	.globl	__stdout
	.p2align	2
__stdout:
.L__stdout$local:
	.zero	84
	.size	__stdout, 84

	.hidden	__stdin                 @ @__stdin
	.type	__stdin,%object
	.section	.bss.__stdin,"aw",%nobits
	.globl	__stdin
	.p2align	2
__stdin:
.L__stdin$local:
	.zero	84
	.size	__stdin, 84

	.section	".note.GNU-stack","",%progbits
	.eabi_attribute	30, 6	@ Tag_ABI_optimization_goals
	.ARM_attribute	16, 1	@ Tag_AV_eba