	.text
	.syntax unified
	.eabi_attribute	67, "2.09"	@ Tag_conformance
	.cpu	cortex-m23
	.eabi_attribute	6, 16	@ Tag_CPU_arch
	.eabi_attribute	7, 77	@ Tag_CPU_arch_profile
	.eabi_attribute	8, 0	@ Tag_ARM_ISA_use
	.eabi_attribute	9, 3	@ Tag_THUMB_ISA_use
	.eabi_attribute	34, 0	@ Tag_CPU_unaligned_access
	.eabi_attribute	17, 1	@ Tag_ABI_PCS_GOT_use
	.eabi_attribute	20, 2	@ Tag_ABI_FP_denormal
	.eabi_attribute	21, 0	@ Tag_ABI_FP_exceptions
	.eabi_attribute	23, 1	@ Tag_ABI_FP_number_model
	.eabi_attribute	24, 1	@ Tag_ABI_align_needed
	.eabi_attribute	25, 1	@ Tag_ABI_align_preserved
	.eabi_attribute	38, 1	@ Tag_ABI_FP_16bit_format
	.eabi_attribute	18, 2	@ Tag_ABI_PCS_wchar_t
	.eabi_attribute	26, 1	@ Tag_ABI_enum_size
	.eabi_attribute	14, 0	@ Tag_ABI_PCS_R9_use
	.file	"uart.c"
	.file	1 "C:\\" "Keil_v5\\ARM\\ARMCLANG\\Bin\\..\\include\\stdint.h"
	.file	2 "C:\\Work\\Keil WorkSpace\\Furbo\\Keil" "../../Library/Nuvoton/M251_252_Series/Device/Nuvoton/M251/Include/uart_reg.h"
	.file	3 "C:\\Work\\Keil WorkSpace\\Furbo\\Keil" "../../Library/Nuvoton/M251_252_Series/Device/Nuvoton/M251/Include/clk_reg.h"
	.hidden	UART_ClearIntFlag       @ -- Begin function UART_ClearIntFlag
	.globl	UART_ClearIntFlag
	.p2align	2
	.type	UART_ClearIntFlag,%function
	.code	16                      @ @UART_ClearIntFlag
	.thumb_func
UART_ClearIntFlag:
.Lfunc_begin0:
	.file	4 "C:\\Work\\Keil WorkSpace\\Furbo\\Keil" "../../Library/Nuvoton/M251_252_Series/StdDriver/src/uart.c"
	.loc	4 42 0                  @ ../../Library/Nuvoton/M251_252_Series/StdDriver/src/uart.c:42:0
	.fnstart
	.cfi_sections .debug_frame
	.cfi_startproc
@ %bb.0:
	.pad	#8
	sub	sp, #8
	.cfi_def_cfa_offset 8
	str	r0, [sp, #4]
	str	r1, [sp]
	mov	r0, sp
.Ltmp0:
	.loc	4 45 9 prologue_end     @ ../../Library/Nuvoton/M251_252_Series/StdDriver/src/uart.c:45:9
	ldrb	r0, [r0, #3]
	lsls	r0, r0, #31
	cmp	r0, #0
	beq	.LBB0_2
	b	.LBB0_1
.LBB0_1:
.Ltmp1:
	.loc	4 47 9                  @ ../../Library/Nuvoton/M251_252_Series/StdDriver/src/uart.c:47:9
	ldr	r0, [sp, #4]
	movs	r1, #1
	lsls	r1, r1, #16
	.loc	4 47 23 is_stmt 0       @ ../../Library/Nuvoton/M251_252_Series/StdDriver/src/uart.c:47:23
	str	r1, [r0, #24]
	.loc	4 48 5 is_stmt 1        @ ../../Library/Nuvoton/M251_252_Series/StdDriver/src/uart.c:48:5
	b	.LBB0_2
.Ltmp2:
.LBB0_2:
	.loc	4 0 5 is_stmt 0         @ ../../Library/Nuvoton/M251_252_Series/StdDriver/src/uart.c:0:5
	mov	r0, sp
	.loc	4 50 9 is_stmt 1        @ ../../Library/Nuvoton/M251_252_Series/StdDriver/src/uart.c:50:9
	ldrb	r0, [r0, #1]
	lsls	r0, r0, #29
	cmp	r0, #0
	bpl	.LBB0_4
	b	.LBB0_3
.LBB0_3:
.Ltmp3:
	.loc	4 52 9                  @ ../../Library/Nuvoton/M251_252_Series/StdDriver/src/uart.c:52:9
	ldr	r0, [sp, #4]
	movs	r1, #96
	.loc	4 52 23 is_stmt 0       @ ../../Library/Nuvoton/M251_252_Series/StdDriver/src/uart.c:52:23
	str	r1, [r0, #24]
	.loc	4 53 9 is_stmt 1        @ ../../Library/Nuvoton/M251_252_Series/StdDriver/src/uart.c:53:9
	ldr	r0, [sp, #4]
	movs	r1, #8
	.loc	4 53 23 is_stmt 0       @ ../../Library/Nuvoton/M251_252_Series/StdDriver/src/uart.c:53:23
	str	r1, [r0, #24]
	.loc	4 54 5 is_stmt 1        @ ../../Library/Nuvoton/M251_252_Series/StdDriver/src/uart.c:54:5
	b	.LBB0_4
.Ltmp4:
.LBB0_4:
	.loc	4 0 5 is_stmt 0         @ ../../Library/Nuvoton/M251_252_Series/StdDriver/src/uart.c:0:5
	mov	r0, sp
	.loc	4 56 9 is_stmt 1        @ ../../Library/Nuvoton/M251_252_Series/StdDriver/src/uart.c:56:9
	ldrb	r0, [r0, #1]
	lsls	r0, r0, #28
	cmp	r0, #0
	bpl	.LBB0_6
	b	.LBB0_5
.LBB0_5:
.Ltmp5:
	.loc	4 58 9                  @ ../../Library/Nuvoton/M251_252_Series/StdDriver/src/uart.c:58:9
	ldr	r0, [sp, #4]
	.loc	4 58 24 is_stmt 0       @ ../../Library/Nuvoton/M251_252_Series/StdDriver/src/uart.c:58:24
	ldr	r1, [r0, #20]
	movs	r2, #1
	orrs	r1, r2
	str	r1, [r0, #20]
	.loc	4 59 5 is_stmt 1        @ ../../Library/Nuvoton/M251_252_Series/StdDriver/src/uart.c:59:5
	b	.LBB0_6
.Ltmp6:
.LBB0_6:
	.loc	4 0 5 is_stmt 0         @ ../../Library/Nuvoton/M251_252_Series/StdDriver/src/uart.c:0:5
	mov	r0, sp
	.loc	4 61 9 is_stmt 1        @ ../../Library/Nuvoton/M251_252_Series/StdDriver/src/uart.c:61:9
	ldrb	r0, [r0, #1]
	lsls	r0, r0, #26
	cmp	r0, #0
	bpl	.LBB0_8
	b	.LBB0_7
.LBB0_7:
.Ltmp7:
	.loc	4 63 9                  @ ../../Library/Nuvoton/M251_252_Series/StdDriver/src/uart.c:63:9
	ldr	r0, [sp, #4]
	ldr	r1, __arm_cp.0_0
	.loc	4 63 23 is_stmt 0       @ ../../Library/Nuvoton/M251_252_Series/StdDriver/src/uart.c:63:23
	str	r1, [r0, #24]
	.loc	4 64 5 is_stmt 1        @ ../../Library/Nuvoton/M251_252_Series/StdDriver/src/uart.c:64:5
	b	.LBB0_8
.Ltmp8:
.LBB0_8:
	.loc	4 0 5 is_stmt 0         @ ../../Library/Nuvoton/M251_252_Series/StdDriver/src/uart.c:0:5
	mov	r0, sp
	.loc	4 66 9 is_stmt 1        @ ../../Library/Nuvoton/M251_252_Series/StdDriver/src/uart.c:66:9
	ldrb	r0, [r0, #1]
	lsls	r0, r0, #25
	cmp	r0, #0
	bpl	.LBB0_10
	b	.LBB0_9
.LBB0_9:
.Ltmp9:
	.loc	4 68 9                  @ ../../Library/Nuvoton/M251_252_Series/StdDriver/src/uart.c:68:9
	ldr	r0, [sp, #4]
	movs	r1, #31
	.loc	4 68 21 is_stmt 0       @ ../../Library/Nuvoton/M251_252_Series/StdDriver/src/uart.c:68:21
	str	r1, [r0, #68]
	.loc	4 71 5 is_stmt 1        @ ../../Library/Nuvoton/M251_252_Series/StdDriver/src/uart.c:71:5
	b	.LBB0_10
.Ltmp10:
.LBB0_10:
	.loc	4 0 5 is_stmt 0         @ ../../Library/Nuvoton/M251_252_Series/StdDriver/src/uart.c:0:5
	mov	r0, sp
	.loc	4 73 9 is_stmt 1        @ ../../Library/Nuvoton/M251_252_Series/StdDriver/src/uart.c:73:9
	ldrb	r0, [r0, #1]
	lsls	r0, r0, #24
	cmp	r0, #0
	bpl	.LBB0_12
	b	.LBB0_11
.LBB0_11:
.Ltmp11:
	.loc	4 75 9                  @ ../../Library/Nuvoton/M251_252_Series/StdDriver/src/uart.c:75:9
	ldr	r0, [sp, #4]
	movs	r1, #128
	.loc	4 75 22 is_stmt 0       @ ../../Library/Nuvoton/M251_252_Series/StdDriver/src/uart.c:75:22
	str	r1, [r0, #28]
	.loc	4 76 9 is_stmt 1        @ ../../Library/Nuvoton/M251_252_Series/StdDriver/src/uart.c:76:9
	ldr	r0, [sp, #4]
	ldr	r1, __arm_cp.0_1
	.loc	4 76 22 is_stmt 0       @ ../../Library/Nuvoton/M251_252_Series/StdDriver/src/uart.c:76:22
	str	r1, [r0, #56]
	.loc	4 79 5 is_stmt 1        @ ../../Library/Nuvoton/M251_252_Series/StdDriver/src/uart.c:79:5
	b	.LBB0_12
.Ltmp12:
.LBB0_12:
	.loc	4 80 1                  @ ../../Library/Nuvoton/M251_252_Series/StdDriver/src/uart.c:80:1
	add	sp, #8
	bx	lr
.Ltmp13:
	.p2align	2
@ %bb.13:
	.loc	4 0 1 is_stmt 0         @ ../../Library/Nuvoton/M251_252_Series/StdDriver/src/uart.c:0:1
__arm_cp.0_0:
	.long	16777217                @ 0x1000001
.Lcpi_end0:
	.size	__arm_cp.0_0, .Lcpi_end0-__arm_cp.0_0
__arm_cp.0_1:
	.long	783                     @ 0x30f
.Lcpi_end1:
	.size	__arm_cp.0_1, .Lcpi_end1-__arm_cp.0_1
.Lfunc_end0:
	.size	UART_ClearIntFlag, .Lfunc_end0-UART_ClearIntFlag
	.cfi_endproc
	.cantunwind
	.fnend
                                        @ -- End function
	.hidden	UART_Close              @ -- Begin function UART_Close
	.globl	UART_Close
	.p2align	1
	.type	UART_Close,%function
	.code	16                      @ @UART_Close
	.thumb_func
UART_Close:
.Lfunc_begin1:
	.loc	4 93 0 is_stmt 1        @ ../../Library/Nuvoton/M251_252_Series/StdDriver/src/uart.c:93:0
	.fnstart
	.cfi_startproc
@ %bb.0:
	.pad	#4
	sub	sp, #4
	.cfi_def_cfa_offset 4
	str	r0, [sp]
.Ltmp14:
	.loc	4 94 5 prologue_end     @ ../../Library/Nuvoton/M251_252_Series/StdDriver/src/uart.c:94:5
	ldr	r0, [sp]
	movs	r1, #0
	.loc	4 94 17 is_stmt 0       @ ../../Library/Nuvoton/M251_252_Series/StdDriver/src/uart.c:94:17
	str	r1, [r0, #4]
	.loc	4 95 1 is_stmt 1        @ ../../Library/Nuvoton/M251_252_Series/StdDriver/src/uart.c:95:1
	add	sp, #4
	bx	lr
.Ltmp15:
.Lfunc_end1:
	.size	UART_Close, .Lfunc_end1-UART_Close
	.cfi_endproc
	.cantunwind
	.fnend
                                        @ -- End function
	.hidden	UART_DisableFlowCtrl    @ -- Begin function UART_DisableFlowCtrl
	.globl	UART_DisableFlowCtrl
	.p2align	1
	.type	UART_DisableFlowCtrl,%function
	.code	16                      @ @UART_DisableFlowCtrl
	.thumb_func
UART_DisableFlowCtrl:
.Lfunc_begin2:
	.loc	4 108 0                 @ ../../Library/Nuvoton/M251_252_Series/StdDriver/src/uart.c:108:0
	.fnstart
	.cfi_startproc
@ %bb.0:
	.pad	#4
	sub	sp, #4
	.cfi_def_cfa_offset 4
	str	r0, [sp]
.Ltmp16:
	.loc	4 109 5 prologue_end    @ ../../Library/Nuvoton/M251_252_Series/StdDriver/src/uart.c:109:5
	ldr	r0, [sp]
	.loc	4 109 17 is_stmt 0      @ ../../Library/Nuvoton/M251_252_Series/StdDriver/src/uart.c:109:17
	ldr	r1, [r0, #4]
	movw	r2, #12288
	bics	r1, r2
	str	r1, [r0, #4]
	.loc	4 110 1 is_stmt 1       @ ../../Library/Nuvoton/M251_252_Series/StdDriver/src/uart.c:110:1
	add	sp, #4
	bx	lr
.Ltmp17:
.Lfunc_end2:
	.size	UART_DisableFlowCtrl, .Lfunc_end2-UART_DisableFlowCtrl
	.cfi_endproc
	.cantunwind
	.fnend
                                        @ -- End function
	.hidden	UART_DisableInt         @ -- Begin function UART_DisableInt
	.globl	UART_DisableInt
	.p2align	1
	.type	UART_DisableInt,%function
	.code	16                      @ @UART_DisableInt
	.thumb_func
UART_DisableInt:
.Lfunc_begin3:
	.loc	4 133 0                 @ ../../Library/Nuvoton/M251_252_Series/StdDriver/src/uart.c:133:0
	.fnstart
	.cfi_startproc
@ %bb.0:
	.pad	#8
	sub	sp, #8
	.cfi_def_cfa_offset 8
	str	r0, [sp, #4]
	str	r1, [sp]
.Ltmp18:
	.loc	4 135 5 prologue_end    @ ../../Library/Nuvoton/M251_252_Series/StdDriver/src/uart.c:135:5
	ldr	r0, [sp]
	ldr	r1, [sp, #4]
	ldr	r2, [r1, #4]
	bics	r2, r0
	str	r2, [r1, #4]
	.loc	4 136 1                 @ ../../Library/Nuvoton/M251_252_Series/StdDriver/src/uart.c:136:1
	add	sp, #8
	bx	lr
.Ltmp19:
.Lfunc_end3:
	.size	UART_DisableInt, .Lfunc_end3-UART_DisableInt
	.cfi_endproc
	.cantunwind
	.fnend
                                        @ -- End function
	.hidden	UART_EnableFlowCtrl     @ -- Begin function UART_EnableFlowCtrl
	.globl	UART_EnableFlowCtrl
	.p2align	1
	.type	UART_EnableFlowCtrl,%function
	.code	16                      @ @UART_EnableFlowCtrl
	.thumb_func
UART_EnableFlowCtrl:
.Lfunc_begin4:
	.loc	4 149 0                 @ ../../Library/Nuvoton/M251_252_Series/StdDriver/src/uart.c:149:0
	.fnstart
	.cfi_startproc
@ %bb.0:
	.pad	#4
	sub	sp, #4
	.cfi_def_cfa_offset 4
	str	r0, [sp]
.Ltmp20:
	.loc	4 151 5 prologue_end    @ ../../Library/Nuvoton/M251_252_Series/StdDriver/src/uart.c:151:5
	ldr	r0, [sp]
	.loc	4 151 17 is_stmt 0      @ ../../Library/Nuvoton/M251_252_Series/StdDriver/src/uart.c:151:17
	ldr	r1, [r0, #16]
	movw	r2, #512
	orrs	r1, r2
	str	r1, [r0, #16]
	.loc	4 154 5 is_stmt 1       @ ../../Library/Nuvoton/M251_252_Series/StdDriver/src/uart.c:154:5
	ldr	r0, [sp]
	.loc	4 154 20 is_stmt 0      @ ../../Library/Nuvoton/M251_252_Series/StdDriver/src/uart.c:154:20
	ldr	r1, [r0, #20]
	movw	r2, #256
	orrs	r1, r2
	str	r1, [r0, #20]
	.loc	4 157 5 is_stmt 1       @ ../../Library/Nuvoton/M251_252_Series/StdDriver/src/uart.c:157:5
	ldr	r0, [sp]
	.loc	4 157 17 is_stmt 0      @ ../../Library/Nuvoton/M251_252_Series/StdDriver/src/uart.c:157:17
	ldr	r1, [r0, #4]
	movw	r2, #12288
	orrs	r1, r2
	str	r1, [r0, #4]
	.loc	4 158 1 is_stmt 1       @ ../../Library/Nuvoton/M251_252_Series/StdDriver/src/uart.c:158:1
	add	sp, #4
	bx	lr
.Ltmp21:
.Lfunc_end4:
	.size	UART_EnableFlowCtrl, .Lfunc_end4-UART_EnableFlowCtrl
	.cfi_endproc
	.cantunwind
	.fnend
                                        @ -- End function
	.hidden	UART_EnableInt          @ -- Begin function UART_EnableInt
	.globl	UART_EnableInt
	.p2align	1
	.type	UART_EnableInt,%function
	.code	16                      @ @UART_EnableInt
	.thumb_func
UART_EnableInt:
.Lfunc_begin5:
	.loc	4 181 0                 @ ../../Library/Nuvoton/M251_252_Series/StdDriver/src/uart.c:181:0
	.fnstart
	.cfi_startproc
@ %bb.0:
	.pad	#8
	sub	sp, #8
	.cfi_def_cfa_offset 8
	str	r0, [sp, #4]
	str	r1, [sp]
.Ltmp22:
	.loc	4 183 5 prologue_end    @ ../../Library/Nuvoton/M251_252_Series/StdDriver/src/uart.c:183:5
	ldr	r0, [sp]
	ldr	r1, [sp, #4]
	ldr	r2, [r1, #4]
	orrs	r2, r0
	str	r2, [r1, #4]
	.loc	4 184 1                 @ ../../Library/Nuvoton/M251_252_Series/StdDriver/src/uart.c:184:1
	add	sp, #8
	bx	lr
.Ltmp23:
.Lfunc_end5:
	.size	UART_EnableInt, .Lfunc_end5-UART_EnableInt
	.cfi_endproc
	.cantunwind
	.fnend
                                        @ -- End function
	.hidden	UART_Open               @ -- Begin function UART_Open
	.globl	UART_Open
	.p2align	2
	.type	UART_Open,%function
	.code	16                      @ @UART_Open
	.thumb_func
UART_Open:
.Lfunc_begin6:
	.loc	4 198 0                 @ ../../Library/Nuvoton/M251_252_Series/StdDriver/src/uart.c:198:0
	.fnstart
	.cfi_startproc
@ %bb.0:
	.save	{r4, r5, r7, lr}
	push	{r4, r5, r7, lr}
	.cfi_def_cfa_offset 16
	.cfi_offset lr, -4
	.cfi_offset r7, -8
	.cfi_offset r5, -12
	.cfi_offset r4, -16
	.pad	#48
	sub	sp, #48
	.cfi_def_cfa_offset 64
	str	r0, [sp, #44]
	str	r1, [sp, #40]
	movs	r0, #0
.Ltmp24:
	.loc	4 199 14 prologue_end   @ ../../Library/Nuvoton/M251_252_Series/StdDriver/src/uart.c:199:14
	str	r0, [sp, #36]
	.loc	4 199 38 is_stmt 0      @ ../../Library/Nuvoton/M251_252_Series/StdDriver/src/uart.c:199:38
	str	r0, [sp, #32]
	.loc	4 200 14 is_stmt 1      @ ../../Library/Nuvoton/M251_252_Series/StdDriver/src/uart.c:200:14
	ldr	r1, __arm_cp.6_0
	add	r2, sp, #8
	ldm	r1!, {r3, r4, r5}
	stm	r2!, {r3, r4, r5}
	ldm	r1!, {r3, r4, r5}
	stm	r2!, {r3, r4, r5}
	.loc	4 201 14                @ ../../Library/Nuvoton/M251_252_Series/StdDriver/src/uart.c:201:14
	str	r0, [sp, #4]
.Ltmp25:
	.loc	4 204 9                 @ ../../Library/Nuvoton/M251_252_Series/StdDriver/src/uart.c:204:9
	ldr	r0, [sp, #44]
	ldr	r1, __arm_cp.6_1
.Ltmp26:
	.loc	4 204 9 is_stmt 0       @ ../../Library/Nuvoton/M251_252_Series/StdDriver/src/uart.c:204:9
	cmp	r0, r1
	bne	.LBB6_2
	b	.LBB6_1
.LBB6_1:
	.loc	4 0 9                   @ ../../Library/Nuvoton/M251_252_Series/StdDriver/src/uart.c:0:9
	ldr	r0, __arm_cp.6_6
.Ltmp27:
	.loc	4 207 45 is_stmt 1      @ ../../Library/Nuvoton/M251_252_Series/StdDriver/src/uart.c:207:45
	ldr	r0, [r0]
	movs	r1, #7
	lsls	r1, r1, #24
	.loc	4 207 53 is_stmt 0      @ ../../Library/Nuvoton/M251_252_Series/StdDriver/src/uart.c:207:53
	ands	r0, r1
	.loc	4 207 82                @ ../../Library/Nuvoton/M251_252_Series/StdDriver/src/uart.c:207:82
	lsrs	r0, r0, #24
	.loc	4 207 26                @ ../../Library/Nuvoton/M251_252_Series/StdDriver/src/uart.c:207:26
	str	r0, [sp, #36]
	ldr	r0, __arm_cp.6_7
	.loc	4 209 34 is_stmt 1      @ ../../Library/Nuvoton/M251_252_Series/StdDriver/src/uart.c:209:34
	ldr	r0, [r0]
	movw	r1, #3840
	.loc	4 209 42 is_stmt 0      @ ../../Library/Nuvoton/M251_252_Series/StdDriver/src/uart.c:209:42
	ands	r0, r1
	.loc	4 209 70                @ ../../Library/Nuvoton/M251_252_Series/StdDriver/src/uart.c:209:70
	lsrs	r0, r0, #8
	.loc	4 209 26                @ ../../Library/Nuvoton/M251_252_Series/StdDriver/src/uart.c:209:26
	str	r0, [sp, #32]
	.loc	4 210 5 is_stmt 1       @ ../../Library/Nuvoton/M251_252_Series/StdDriver/src/uart.c:210:5
	b	.LBB6_9
.Ltmp28:
.LBB6_2:
	.loc	4 211 14                @ ../../Library/Nuvoton/M251_252_Series/StdDriver/src/uart.c:211:14
	ldr	r0, [sp, #44]
	ldr	r1, __arm_cp.6_2
.Ltmp29:
	.loc	4 211 14 is_stmt 0      @ ../../Library/Nuvoton/M251_252_Series/StdDriver/src/uart.c:211:14
	cmp	r0, r1
	bne	.LBB6_4
	b	.LBB6_3
.LBB6_3:
	.loc	4 0 14                  @ ../../Library/Nuvoton/M251_252_Series/StdDriver/src/uart.c:0:14
	ldr	r0, __arm_cp.6_6
.Ltmp30:
	.loc	4 214 34 is_stmt 1      @ ../../Library/Nuvoton/M251_252_Series/StdDriver/src/uart.c:214:34
	ldr	r0, [r0]
	movs	r1, #7
	lsls	r1, r1, #28
	.loc	4 214 42 is_stmt 0      @ ../../Library/Nuvoton/M251_252_Series/StdDriver/src/uart.c:214:42
	ands	r0, r1
	.loc	4 214 70                @ ../../Library/Nuvoton/M251_252_Series/StdDriver/src/uart.c:214:70
	lsrs	r0, r0, #28
	.loc	4 214 26                @ ../../Library/Nuvoton/M251_252_Series/StdDriver/src/uart.c:214:26
	str	r0, [sp, #36]
	ldr	r0, __arm_cp.6_7
	.loc	4 216 34 is_stmt 1      @ ../../Library/Nuvoton/M251_252_Series/StdDriver/src/uart.c:216:34
	ldr	r0, [r0]
	.loc	4 216 42 is_stmt 0      @ ../../Library/Nuvoton/M251_252_Series/StdDriver/src/uart.c:216:42
	uxth	r0, r0
	.loc	4 216 70                @ ../../Library/Nuvoton/M251_252_Series/StdDriver/src/uart.c:216:70
	lsrs	r0, r0, #12
	.loc	4 216 26                @ ../../Library/Nuvoton/M251_252_Series/StdDriver/src/uart.c:216:26
	str	r0, [sp, #32]
	.loc	4 217 5 is_stmt 1       @ ../../Library/Nuvoton/M251_252_Series/StdDriver/src/uart.c:217:5
	b	.LBB6_8
.Ltmp31:
.LBB6_4:
	.loc	4 218 14                @ ../../Library/Nuvoton/M251_252_Series/StdDriver/src/uart.c:218:14
	ldr	r0, [sp, #44]
	ldr	r1, __arm_cp.6_3
.Ltmp32:
	.loc	4 218 14 is_stmt 0      @ ../../Library/Nuvoton/M251_252_Series/StdDriver/src/uart.c:218:14
	cmp	r0, r1
	bne	.LBB6_6
	b	.LBB6_5
.LBB6_5:
	.loc	4 0 14                  @ ../../Library/Nuvoton/M251_252_Series/StdDriver/src/uart.c:0:14
	ldr	r0, __arm_cp.6_4
.Ltmp33:
	.loc	4 221 34 is_stmt 1      @ ../../Library/Nuvoton/M251_252_Series/StdDriver/src/uart.c:221:34
	ldr	r0, [r0]
	movs	r1, #7
	lsls	r1, r1, #24
	.loc	4 221 42 is_stmt 0      @ ../../Library/Nuvoton/M251_252_Series/StdDriver/src/uart.c:221:42
	ands	r0, r1
	.loc	4 221 70                @ ../../Library/Nuvoton/M251_252_Series/StdDriver/src/uart.c:221:70
	lsrs	r0, r0, #24
	.loc	4 221 26                @ ../../Library/Nuvoton/M251_252_Series/StdDriver/src/uart.c:221:26
	str	r0, [sp, #36]
	ldr	r0, __arm_cp.6_5
	.loc	4 223 34 is_stmt 1      @ ../../Library/Nuvoton/M251_252_Series/StdDriver/src/uart.c:223:34
	ldr	r0, [r0]
	movs	r1, #15
	.loc	4 223 42 is_stmt 0      @ ../../Library/Nuvoton/M251_252_Series/StdDriver/src/uart.c:223:42
	ands	r0, r1
	.loc	4 223 26                @ ../../Library/Nuvoton/M251_252_Series/StdDriver/src/uart.c:223:26
	str	r0, [sp, #32]
	.loc	4 224 5 is_stmt 1       @ ../../Library/Nuvoton/M251_252_Series/StdDriver/src/uart.c:224:5
	b	.LBB6_7
.Ltmp34:
.LBB6_6:
	.loc	4 0 5 is_stmt 0         @ ../../Library/Nuvoton/M251_252_Series/StdDriver/src/uart.c:0:5
	b	.LBB6_7
.LBB6_7:
	b	.LBB6_8
.LBB6_8:
	b	.LBB6_9
.LBB6_9:
	.loc	4 228 5 is_stmt 1       @ ../../Library/Nuvoton/M251_252_Series/StdDriver/src/uart.c:228:5
	ldr	r0, [sp, #44]
	movs	r1, #0
	.loc	4 228 19 is_stmt 0      @ ../../Library/Nuvoton/M251_252_Series/StdDriver/src/uart.c:228:19
	str	r1, [r0, #48]
	.loc	4 231 5 is_stmt 1       @ ../../Library/Nuvoton/M251_252_Series/StdDriver/src/uart.c:231:5
	ldr	r0, [sp, #44]
	movs	r1, #3
	.loc	4 231 16 is_stmt 0      @ ../../Library/Nuvoton/M251_252_Series/StdDriver/src/uart.c:231:16
	str	r1, [r0, #12]
	.loc	4 234 5 is_stmt 1       @ ../../Library/Nuvoton/M251_252_Series/StdDriver/src/uart.c:234:5
	ldr	r0, [sp, #44]
	.loc	4 234 16 is_stmt 0      @ ../../Library/Nuvoton/M251_252_Series/StdDriver/src/uart.c:234:16
	ldr	r1, [r0, #8]
	ldr	r2, __arm_cp.6_8
	ands	r1, r2
	str	r1, [r0, #8]
.Ltmp35:
	.loc	4 237 9 is_stmt 1       @ ../../Library/Nuvoton/M251_252_Series/StdDriver/src/uart.c:237:9
	ldr	r0, [sp, #36]
.Ltmp36:
	.loc	4 237 9 is_stmt 0       @ ../../Library/Nuvoton/M251_252_Series/StdDriver/src/uart.c:237:9
	cmp	r0, #1
	bne	.LBB6_11
	b	.LBB6_10
.LBB6_10:
.Ltmp37:
	.loc	4 239 40 is_stmt 1      @ ../../Library/Nuvoton/M251_252_Series/StdDriver/src/uart.c:239:40
	bl	CLK_GetPLLClockFreq
	.loc	4 239 20 is_stmt 0      @ ../../Library/Nuvoton/M251_252_Series/StdDriver/src/uart.c:239:20
	ldr	r1, [sp, #36]
	.loc	4 239 9                 @ ../../Library/Nuvoton/M251_252_Series/StdDriver/src/uart.c:239:9
	lsls	r1, r1, #2
	add	r2, sp, #8
	.loc	4 239 38                @ ../../Library/Nuvoton/M251_252_Series/StdDriver/src/uart.c:239:38
	str	r0, [r2, r1]
	.loc	4 240 5 is_stmt 1       @ ../../Library/Nuvoton/M251_252_Series/StdDriver/src/uart.c:240:5
	b	.LBB6_11
.Ltmp38:
.LBB6_11:
	.loc	4 243 9                 @ ../../Library/Nuvoton/M251_252_Series/StdDriver/src/uart.c:243:9
	ldr	r0, [sp, #36]
.Ltmp39:
	.loc	4 243 9 is_stmt 0       @ ../../Library/Nuvoton/M251_252_Series/StdDriver/src/uart.c:243:9
	cmp	r0, #4
	bne	.LBB6_17
	b	.LBB6_12
.LBB6_12:
.Ltmp40:
	.loc	4 246 14 is_stmt 1      @ ../../Library/Nuvoton/M251_252_Series/StdDriver/src/uart.c:246:14
	ldr	r0, [sp, #44]
	ldr	r1, __arm_cp.6_1
	.loc	4 246 39 is_stmt 0      @ ../../Library/Nuvoton/M251_252_Series/StdDriver/src/uart.c:246:39
	cmp	r0, r1
	beq	.LBB6_14
	b	.LBB6_13
.LBB6_13:
	.loc	4 246 43                @ ../../Library/Nuvoton/M251_252_Series/StdDriver/src/uart.c:246:43
	ldr	r0, [sp, #44]
	ldr	r1, __arm_cp.6_3
.Ltmp41:
	.loc	4 246 13                @ ../../Library/Nuvoton/M251_252_Series/StdDriver/src/uart.c:246:13
	cmp	r0, r1
	bne	.LBB6_15
	b	.LBB6_14
.LBB6_14:
.Ltmp42:
	.loc	4 248 45 is_stmt 1      @ ../../Library/Nuvoton/M251_252_Series/StdDriver/src/uart.c:248:45
	bl	CLK_GetPCLK0Freq
	.loc	4 248 24 is_stmt 0      @ ../../Library/Nuvoton/M251_252_Series/StdDriver/src/uart.c:248:24
	ldr	r1, [sp, #36]
	.loc	4 248 13                @ ../../Library/Nuvoton/M251_252_Series/StdDriver/src/uart.c:248:13
	lsls	r1, r1, #2
	add	r2, sp, #8
	.loc	4 248 42                @ ../../Library/Nuvoton/M251_252_Series/StdDriver/src/uart.c:248:42
	str	r0, [r2, r1]
	.loc	4 249 9 is_stmt 1       @ ../../Library/Nuvoton/M251_252_Series/StdDriver/src/uart.c:249:9
	b	.LBB6_16
.Ltmp43:
.LBB6_15:
	.loc	4 252 45                @ ../../Library/Nuvoton/M251_252_Series/StdDriver/src/uart.c:252:45
	bl	CLK_GetPCLK1Freq
	.loc	4 252 24 is_stmt 0      @ ../../Library/Nuvoton/M251_252_Series/StdDriver/src/uart.c:252:24
	ldr	r1, [sp, #36]
	.loc	4 252 13                @ ../../Library/Nuvoton/M251_252_Series/StdDriver/src/uart.c:252:13
	lsls	r1, r1, #2
	add	r2, sp, #8
	.loc	4 252 42                @ ../../Library/Nuvoton/M251_252_Series/StdDriver/src/uart.c:252:42
	str	r0, [r2, r1]
	b	.LBB6_16
.Ltmp44:
.LBB6_16:
	.loc	4 255 5 is_stmt 1       @ ../../Library/Nuvoton/M251_252_Series/StdDriver/src/uart.c:255:5
	b	.LBB6_17
.Ltmp45:
.LBB6_17:
	.loc	4 258 9                 @ ../../Library/Nuvoton/M251_252_Series/StdDriver/src/uart.c:258:9
	ldr	r0, [sp, #40]
.Ltmp46:
	.loc	4 258 9 is_stmt 0       @ ../../Library/Nuvoton/M251_252_Series/StdDriver/src/uart.c:258:9
	cmp	r0, #0
	beq	.LBB6_22
	b	.LBB6_18
.LBB6_18:
.Ltmp47:
	.loc	4 260 23 is_stmt 1      @ ../../Library/Nuvoton/M251_252_Series/StdDriver/src/uart.c:260:23
	ldr	r0, [sp, #36]
	lsls	r0, r0, #2
	add	r1, sp, #8
	ldr	r0, [r1, r0]
	ldr	r1, [sp, #32]
	adds	r1, r1, #1
	udiv	r0, r0, r1
	ldr	r1, [sp, #40]
	lsrs	r2, r1, #1
	adds	r0, r0, r2
	udiv	r0, r0, r1
	subs	r0, r0, #2
	.loc	4 260 21 is_stmt 0      @ ../../Library/Nuvoton/M251_252_Series/StdDriver/src/uart.c:260:21
	str	r0, [sp, #4]
	add	r0, sp, #4
.Ltmp48:
	.loc	4 262 13 is_stmt 1      @ ../../Library/Nuvoton/M251_252_Series/StdDriver/src/uart.c:262:13
	ldrh	r0, [r0, #2]
.Ltmp49:
	.loc	4 262 13 is_stmt 0      @ ../../Library/Nuvoton/M251_252_Series/StdDriver/src/uart.c:262:13
	cmp	r0, #0
	beq	.LBB6_20
	b	.LBB6_19
.LBB6_19:
.Ltmp50:
	.loc	4 264 45 is_stmt 1      @ ../../Library/Nuvoton/M251_252_Series/StdDriver/src/uart.c:264:45
	ldr	r0, [sp, #36]
	lsls	r0, r0, #2
	add	r1, sp, #8
	ldr	r0, [r1, r0]
	ldr	r1, [sp, #32]
	adds	r1, r1, #1
	udiv	r0, r0, r1
	ldr	r1, [sp, #40]
	lsls	r2, r1, #3
	adds	r0, r0, r2
	udiv	r0, r0, r1
	lsrs	r0, r0, #4
	subs	r0, r0, #2
	.loc	4 264 13 is_stmt 0      @ ../../Library/Nuvoton/M251_252_Series/StdDriver/src/uart.c:264:13
	ldr	r1, [sp, #44]
	.loc	4 264 24                @ ../../Library/Nuvoton/M251_252_Series/StdDriver/src/uart.c:264:24
	str	r0, [r1, #36]
	.loc	4 265 9 is_stmt 1       @ ../../Library/Nuvoton/M251_252_Series/StdDriver/src/uart.c:265:9
	b	.LBB6_21
.Ltmp51:
.LBB6_20:
	.loc	4 268 45                @ ../../Library/Nuvoton/M251_252_Series/StdDriver/src/uart.c:268:45
	ldr	r0, [sp, #4]
	movs	r1, #3
	lsls	r1, r1, #28
	.loc	4 268 43 is_stmt 0      @ ../../Library/Nuvoton/M251_252_Series/StdDriver/src/uart.c:268:43
	orrs	r0, r1
	.loc	4 268 13                @ ../../Library/Nuvoton/M251_252_Series/StdDriver/src/uart.c:268:13
	ldr	r1, [sp, #44]
	.loc	4 268 24                @ ../../Library/Nuvoton/M251_252_Series/StdDriver/src/uart.c:268:24
	str	r0, [r1, #36]
	b	.LBB6_21
.Ltmp52:
.LBB6_21:
	.loc	4 270 5 is_stmt 1       @ ../../Library/Nuvoton/M251_252_Series/StdDriver/src/uart.c:270:5
	b	.LBB6_22
.Ltmp53:
.LBB6_22:
	.loc	4 271 1                 @ ../../Library/Nuvoton/M251_252_Series/StdDriver/src/uart.c:271:1
	add	sp, #48
	pop	{r4, r5, r7, pc}
.Ltmp54:
	.p2align	2
@ %bb.23:
	.loc	4 0 1 is_stmt 0         @ ../../Library/Nuvoton/M251_252_Series/StdDriver/src/uart.c:0:1
__arm_cp.6_0:
	.long	.L__const.UART_Open.au32ClkTbl
.Lcpi_end2:
	.size	__arm_cp.6_0, .Lcpi_end2-__arm_cp.6_0
__arm_cp.6_1:
	.long	1074200576              @ 0x40070000
.Lcpi_end3:
	.size	__arm_cp.6_1, .Lcpi_end3-__arm_cp.6_1
__arm_cp.6_2:
	.long	1074204672              @ 0x40071000
.Lcpi_end4:
	.size	__arm_cp.6_2, .Lcpi_end4-__arm_cp.6_2
__arm_cp.6_3:
	.long	1074208768              @ 0x40072000
.Lcpi_end5:
	.size	__arm_cp.6_3, .Lcpi_end5-__arm_cp.6_3
__arm_cp.6_4:
	.long	1073742364              @ 0x4000021c
.Lcpi_end6:
	.size	__arm_cp.6_4, .Lcpi_end6-__arm_cp.6_4
__arm_cp.6_5:
	.long	1073742384              @ 0x40000230
.Lcpi_end7:
	.size	__arm_cp.6_5, .Lcpi_end7-__arm_cp.6_5
__arm_cp.6_6:
	.long	1073742356              @ 0x40000214
.Lcpi_end8:
	.size	__arm_cp.6_6, .Lcpi_end8-__arm_cp.6_6
__arm_cp.6_7:
	.long	1073742368              @ 0x40000220
.Lcpi_end9:
	.size	__arm_cp.6_7, .Lcpi_end9-__arm_cp.6_7
__arm_cp.6_8:
	.long	4293984015              @ 0xfff0ff0f
.Lcpi_end10:
	.size	__arm_cp.6_8, .Lcpi_end10-__arm_cp.6_8
.Lfunc_end6:
	.size	UART_Open, .Lfunc_end6-UART_Open
	.cfi_endproc
	.cantunwind
	.fnend
                                        @ -- End function
	.hidden	UART_Read               @ -- Begin function UART_Read
	.globl	UART_Read
	.p2align	1
	.type	UART_Read,%function
	.code	16                      @ @UART_Read
	.thumb_func
UART_Read:
.Lfunc_begin7:
	.loc	4 286 0 is_stmt 1       @ ../../Library/Nuvoton/M251_252_Series/StdDriver/src/uart.c:286:0
	.fnstart
	.cfi_startproc
@ %bb.0:
	.pad	#24
	sub	sp, #24
	.cfi_def_cfa_offset 24
	str	r0, [sp, #20]
	str	r1, [sp, #16]
	str	r2, [sp, #12]
	movs	r0, #0
.Ltmp55:
	.loc	4 288 15 prologue_end   @ ../../Library/Nuvoton/M251_252_Series/StdDriver/src/uart.c:288:15
	str	r0, [sp]
.Ltmp56:
	.loc	4 290 19                @ ../../Library/Nuvoton/M251_252_Series/StdDriver/src/uart.c:290:19
	str	r0, [sp, #8]
	.loc	4 290 10 is_stmt 0      @ ../../Library/Nuvoton/M251_252_Series/StdDriver/src/uart.c:290:10
	b	.LBB7_1
.LBB7_1:                                @ =>This Loop Header: Depth=1
                                        @     Child Loop BB7_3 Depth 2
.Ltmp57:
	.loc	4 290 26                @ ../../Library/Nuvoton/M251_252_Series/StdDriver/src/uart.c:290:26
	ldr	r0, [sp, #8]
	.loc	4 290 37                @ ../../Library/Nuvoton/M251_252_Series/StdDriver/src/uart.c:290:37
	ldr	r1, [sp, #12]
.Ltmp58:
	.loc	4 290 5                 @ ../../Library/Nuvoton/M251_252_Series/StdDriver/src/uart.c:290:5
	cmp	r0, r1
	bhs	.LBB7_13
	b	.LBB7_2
.LBB7_2:                                @   in Loop: Header=BB7_1 Depth=1
	.loc	4 0 5                   @ ../../Library/Nuvoton/M251_252_Series/StdDriver/src/uart.c:0:5
	movs	r0, #0
.Ltmp59:
	.loc	4 292 21 is_stmt 1      @ ../../Library/Nuvoton/M251_252_Series/StdDriver/src/uart.c:292:21
	str	r0, [sp, #4]
	.loc	4 294 9                 @ ../../Library/Nuvoton/M251_252_Series/StdDriver/src/uart.c:294:9
	b	.LBB7_3
.LBB7_3:                                @   Parent Loop BB7_1 Depth=1
                                        @ =>  This Inner Loop Header: Depth=2
	.loc	4 294 16 is_stmt 0      @ ../../Library/Nuvoton/M251_252_Series/StdDriver/src/uart.c:294:16
	ldr	r0, [sp, #20]
	.loc	4 294 22                @ ../../Library/Nuvoton/M251_252_Series/StdDriver/src/uart.c:294:22
	ldr	r0, [r0, #24]
	.loc	4 294 9                 @ ../../Library/Nuvoton/M251_252_Series/StdDriver/src/uart.c:294:9
	lsls	r0, r0, #17
	cmp	r0, #0
	bpl	.LBB7_8
	b	.LBB7_4
.LBB7_4:                                @   in Loop: Header=BB7_3 Depth=2
.Ltmp60:
	.loc	4 296 24 is_stmt 1      @ ../../Library/Nuvoton/M251_252_Series/StdDriver/src/uart.c:296:24
	ldr	r0, [sp, #4]
	adds	r0, r0, #1
	str	r0, [sp, #4]
.Ltmp61:
	.loc	4 298 17                @ ../../Library/Nuvoton/M251_252_Series/StdDriver/src/uart.c:298:17
	ldr	r0, [sp, #4]
.Ltmp62:
	.loc	4 298 17 is_stmt 0      @ ../../Library/Nuvoton/M251_252_Series/StdDriver/src/uart.c:298:17
	lsrs	r0, r0, #30
	cmp	r0, #0
	beq	.LBB7_6
	b	.LBB7_5
.LBB7_5:                                @   in Loop: Header=BB7_1 Depth=1
	.loc	4 0 17                  @ ../../Library/Nuvoton/M251_252_Series/StdDriver/src/uart.c:0:17
	movs	r0, #1
.Ltmp63:
	.loc	4 300 25 is_stmt 1      @ ../../Library/Nuvoton/M251_252_Series/StdDriver/src/uart.c:300:25
	str	r0, [sp]
	.loc	4 301 17                @ ../../Library/Nuvoton/M251_252_Series/StdDriver/src/uart.c:301:17
	b	.LBB7_8
.Ltmp64:
.LBB7_6:                                @   in Loop: Header=BB7_3 Depth=2
	.loc	4 0 17 is_stmt 0        @ ../../Library/Nuvoton/M251_252_Series/StdDriver/src/uart.c:0:17
	b	.LBB7_7
.LBB7_7:                                @   in Loop: Header=BB7_3 Depth=2
	.loc	4 294 9 is_stmt 1       @ ../../Library/Nuvoton/M251_252_Series/StdDriver/src/uart.c:294:9
	b	.LBB7_3
.LBB7_8:                                @   in Loop: Header=BB7_1 Depth=1
.Ltmp65:
	.loc	4 308 13                @ ../../Library/Nuvoton/M251_252_Series/StdDriver/src/uart.c:308:13
	ldr	r0, [sp]
.Ltmp66:
	.loc	4 308 13 is_stmt 0      @ ../../Library/Nuvoton/M251_252_Series/StdDriver/src/uart.c:308:13
	cmp	r0, #1
	bne	.LBB7_10
	b	.LBB7_9
.LBB7_9:
.Ltmp67:
	.loc	4 310 13 is_stmt 1      @ ../../Library/Nuvoton/M251_252_Series/StdDriver/src/uart.c:310:13
	b	.LBB7_13
.Ltmp68:
.LBB7_10:                               @   in Loop: Header=BB7_1 Depth=1
	.loc	4 314 43                @ ../../Library/Nuvoton/M251_252_Series/StdDriver/src/uart.c:314:43
	ldr	r0, [sp, #20]
	.loc	4 314 49 is_stmt 0      @ ../../Library/Nuvoton/M251_252_Series/StdDriver/src/uart.c:314:49
	ldr	r0, [r0]
	.loc	4 314 13                @ ../../Library/Nuvoton/M251_252_Series/StdDriver/src/uart.c:314:13
	ldr	r1, [sp, #16]
	.loc	4 314 22                @ ../../Library/Nuvoton/M251_252_Series/StdDriver/src/uart.c:314:22
	ldr	r2, [sp, #8]
	.loc	4 314 32                @ ../../Library/Nuvoton/M251_252_Series/StdDriver/src/uart.c:314:32
	strb	r0, [r1, r2]
	b	.LBB7_11
.Ltmp69:
.LBB7_11:                               @   in Loop: Header=BB7_1 Depth=1
	.loc	4 316 5 is_stmt 1       @ ../../Library/Nuvoton/M251_252_Series/StdDriver/src/uart.c:316:5
	b	.LBB7_12
.Ltmp70:
.LBB7_12:                               @   in Loop: Header=BB7_1 Depth=1
	.loc	4 290 59                @ ../../Library/Nuvoton/M251_252_Series/StdDriver/src/uart.c:290:59
	ldr	r0, [sp, #8]
	adds	r0, r0, #1
	str	r0, [sp, #8]
	.loc	4 290 5 is_stmt 0       @ ../../Library/Nuvoton/M251_252_Series/StdDriver/src/uart.c:290:5
	b	.LBB7_1
.Ltmp71:
.LBB7_13:
	.loc	4 318 12 is_stmt 1      @ ../../Library/Nuvoton/M251_252_Series/StdDriver/src/uart.c:318:12
	ldr	r0, [sp, #8]
	.loc	4 318 5 is_stmt 0       @ ../../Library/Nuvoton/M251_252_Series/StdDriver/src/uart.c:318:5
	add	sp, #24
	bx	lr
.Ltmp72:
.Lfunc_end7:
	.size	UART_Read, .Lfunc_end7-UART_Read
	.cfi_endproc
	.cantunwind
	.fnend
                                        @ -- End function
	.hidden	UART_SetLine_Config     @ -- Begin function UART_SetLine_Config
	.globl	UART_SetLine_Config
	.p2align	2
	.type	UART_SetLine_Config,%function
	.code	16                      @ @UART_SetLine_Config
	.thumb_func
UART_SetLine_Config:
.Lfunc_begin8:
	.loc	4 350 0 is_stmt 1       @ ../../Library/Nuvoton/M251_252_Series/StdDriver/src/uart.c:350:0
	.fnstart
	.cfi_startproc
@ %bb.0:
	.save	{r4, r5, r6, lr}
	push	{r4, r5, r6, lr}
	.cfi_def_cfa_offset 16
	.cfi_offset lr, -4
	.cfi_offset r6, -8
	.cfi_offset r5, -12
	.cfi_offset r4, -16
	.pad	#56
	sub	sp, #56
	.cfi_def_cfa_offset 72
	ldr	r4, [sp, #72]
	str	r0, [sp, #52]
	str	r1, [sp, #48]
	str	r2, [sp, #44]
	str	r3, [sp, #40]
	movs	r0, #0
.Ltmp73:
	.loc	4 351 14 prologue_end   @ ../../Library/Nuvoton/M251_252_Series/StdDriver/src/uart.c:351:14
	str	r0, [sp, #36]
	.loc	4 351 38 is_stmt 0      @ ../../Library/Nuvoton/M251_252_Series/StdDriver/src/uart.c:351:38
	str	r0, [sp, #32]
	.loc	4 352 14 is_stmt 1      @ ../../Library/Nuvoton/M251_252_Series/StdDriver/src/uart.c:352:14
	ldr	r1, __arm_cp.8_0
	add	r2, sp, #8
	ldm	r1!, {r3, r5, r6}
	stm	r2!, {r3, r5, r6}
	ldm	r1!, {r3, r5, r6}
	stm	r2!, {r3, r5, r6}
	.loc	4 353 14                @ ../../Library/Nuvoton/M251_252_Series/StdDriver/src/uart.c:353:14
	str	r0, [sp, #4]
.Ltmp74:
	.loc	4 356 9                 @ ../../Library/Nuvoton/M251_252_Series/StdDriver/src/uart.c:356:9
	ldr	r0, [sp, #52]
	ldr	r1, __arm_cp.8_1
.Ltmp75:
	.loc	4 356 9 is_stmt 0       @ ../../Library/Nuvoton/M251_252_Series/StdDriver/src/uart.c:356:9
	cmp	r0, r1
	bne	.LBB8_2
	b	.LBB8_1
.LBB8_1:
	.loc	4 0 9                   @ ../../Library/Nuvoton/M251_252_Series/StdDriver/src/uart.c:0:9
	ldr	r0, __arm_cp.8_6
.Ltmp76:
	.loc	4 359 34 is_stmt 1      @ ../../Library/Nuvoton/M251_252_Series/StdDriver/src/uart.c:359:34
	ldr	r0, [r0]
	movs	r1, #7
	lsls	r1, r1, #24
	.loc	4 359 42 is_stmt 0      @ ../../Library/Nuvoton/M251_252_Series/StdDriver/src/uart.c:359:42
	ands	r0, r1
	.loc	4 359 70                @ ../../Library/Nuvoton/M251_252_Series/StdDriver/src/uart.c:359:70
	lsrs	r0, r0, #24
	.loc	4 359 26                @ ../../Library/Nuvoton/M251_252_Series/StdDriver/src/uart.c:359:26
	str	r0, [sp, #36]
	ldr	r0, __arm_cp.8_7
	.loc	4 361 34 is_stmt 1      @ ../../Library/Nuvoton/M251_252_Series/StdDriver/src/uart.c:361:34
	ldr	r0, [r0]
	movw	r1, #3840
	.loc	4 361 42 is_stmt 0      @ ../../Library/Nuvoton/M251_252_Series/StdDriver/src/uart.c:361:42
	ands	r0, r1
	.loc	4 361 70                @ ../../Library/Nuvoton/M251_252_Series/StdDriver/src/uart.c:361:70
	lsrs	r0, r0, #8
	.loc	4 361 26                @ ../../Library/Nuvoton/M251_252_Series/StdDriver/src/uart.c:361:26
	str	r0, [sp, #32]
	.loc	4 362 5 is_stmt 1       @ ../../Library/Nuvoton/M251_252_Series/StdDriver/src/uart.c:362:5
	b	.LBB8_9
.Ltmp77:
.LBB8_2:
	.loc	4 363 14                @ ../../Library/Nuvoton/M251_252_Series/StdDriver/src/uart.c:363:14
	ldr	r0, [sp, #52]
	ldr	r1, __arm_cp.8_2
.Ltmp78:
	.loc	4 363 14 is_stmt 0      @ ../../Library/Nuvoton/M251_252_Series/StdDriver/src/uart.c:363:14
	cmp	r0, r1
	bne	.LBB8_4
	b	.LBB8_3
.LBB8_3:
	.loc	4 0 14                  @ ../../Library/Nuvoton/M251_252_Series/StdDriver/src/uart.c:0:14
	ldr	r0, __arm_cp.8_6
.Ltmp79:
	.loc	4 366 34 is_stmt 1      @ ../../Library/Nuvoton/M251_252_Series/StdDriver/src/uart.c:366:34
	ldr	r0, [r0]
	movs	r1, #7
	lsls	r1, r1, #28
	.loc	4 366 42 is_stmt 0      @ ../../Library/Nuvoton/M251_252_Series/StdDriver/src/uart.c:366:42
	ands	r0, r1
	.loc	4 366 70                @ ../../Library/Nuvoton/M251_252_Series/StdDriver/src/uart.c:366:70
	lsrs	r0, r0, #28
	.loc	4 366 26                @ ../../Library/Nuvoton/M251_252_Series/StdDriver/src/uart.c:366:26
	str	r0, [sp, #36]
	ldr	r0, __arm_cp.8_7
	.loc	4 368 34 is_stmt 1      @ ../../Library/Nuvoton/M251_252_Series/StdDriver/src/uart.c:368:34
	ldr	r0, [r0]
	.loc	4 368 42 is_stmt 0      @ ../../Library/Nuvoton/M251_252_Series/StdDriver/src/uart.c:368:42
	uxth	r0, r0
	.loc	4 368 70                @ ../../Library/Nuvoton/M251_252_Series/StdDriver/src/uart.c:368:70
	lsrs	r0, r0, #12
	.loc	4 368 26                @ ../../Library/Nuvoton/M251_252_Series/StdDriver/src/uart.c:368:26
	str	r0, [sp, #32]
	.loc	4 369 5 is_stmt 1       @ ../../Library/Nuvoton/M251_252_Series/StdDriver/src/uart.c:369:5
	b	.LBB8_8
.Ltmp80:
.LBB8_4:
	.loc	4 370 14                @ ../../Library/Nuvoton/M251_252_Series/StdDriver/src/uart.c:370:14
	ldr	r0, [sp, #52]
	ldr	r1, __arm_cp.8_3
.Ltmp81:
	.loc	4 370 14 is_stmt 0      @ ../../Library/Nuvoton/M251_252_Series/StdDriver/src/uart.c:370:14
	cmp	r0, r1
	bne	.LBB8_6
	b	.LBB8_5
.LBB8_5:
	.loc	4 0 14                  @ ../../Library/Nuvoton/M251_252_Series/StdDriver/src/uart.c:0:14
	ldr	r0, __arm_cp.8_4
.Ltmp82:
	.loc	4 373 34 is_stmt 1      @ ../../Library/Nuvoton/M251_252_Series/StdDriver/src/uart.c:373:34
	ldr	r0, [r0]
	movs	r1, #7
	lsls	r1, r1, #24
	.loc	4 373 42 is_stmt 0      @ ../../Library/Nuvoton/M251_252_Series/StdDriver/src/uart.c:373:42
	ands	r0, r1
	.loc	4 373 70                @ ../../Library/Nuvoton/M251_252_Series/StdDriver/src/uart.c:373:70
	lsrs	r0, r0, #24
	.loc	4 373 26                @ ../../Library/Nuvoton/M251_252_Series/StdDriver/src/uart.c:373:26
	str	r0, [sp, #36]
	ldr	r0, __arm_cp.8_5
	.loc	4 375 34 is_stmt 1      @ ../../Library/Nuvoton/M251_252_Series/StdDriver/src/uart.c:375:34
	ldr	r0, [r0]
	movs	r1, #15
	.loc	4 375 42 is_stmt 0      @ ../../Library/Nuvoton/M251_252_Series/StdDriver/src/uart.c:375:42
	ands	r0, r1
	.loc	4 375 26                @ ../../Library/Nuvoton/M251_252_Series/StdDriver/src/uart.c:375:26
	str	r0, [sp, #32]
	.loc	4 376 5 is_stmt 1       @ ../../Library/Nuvoton/M251_252_Series/StdDriver/src/uart.c:376:5
	b	.LBB8_7
.Ltmp83:
.LBB8_6:
	.loc	4 0 5 is_stmt 0         @ ../../Library/Nuvoton/M251_252_Series/StdDriver/src/uart.c:0:5
	b	.LBB8_7
.LBB8_7:
	b	.LBB8_8
.LBB8_8:
	b	.LBB8_9
.LBB8_9:
.Ltmp84:
	.loc	4 380 9 is_stmt 1       @ ../../Library/Nuvoton/M251_252_Series/StdDriver/src/uart.c:380:9
	ldr	r0, [sp, #36]
.Ltmp85:
	.loc	4 380 9 is_stmt 0       @ ../../Library/Nuvoton/M251_252_Series/StdDriver/src/uart.c:380:9
	cmp	r0, #1
	bne	.LBB8_11
	b	.LBB8_10
.LBB8_10:
.Ltmp86:
	.loc	4 382 40 is_stmt 1      @ ../../Library/Nuvoton/M251_252_Series/StdDriver/src/uart.c:382:40
	bl	CLK_GetPLLClockFreq
	.loc	4 382 20 is_stmt 0      @ ../../Library/Nuvoton/M251_252_Series/StdDriver/src/uart.c:382:20
	ldr	r1, [sp, #36]
	.loc	4 382 9                 @ ../../Library/Nuvoton/M251_252_Series/StdDriver/src/uart.c:382:9
	lsls	r1, r1, #2
	add	r2, sp, #8
	.loc	4 382 38                @ ../../Library/Nuvoton/M251_252_Series/StdDriver/src/uart.c:382:38
	str	r0, [r2, r1]
	.loc	4 383 5 is_stmt 1       @ ../../Library/Nuvoton/M251_252_Series/StdDriver/src/uart.c:383:5
	b	.LBB8_11
.Ltmp87:
.LBB8_11:
	.loc	4 386 9                 @ ../../Library/Nuvoton/M251_252_Series/StdDriver/src/uart.c:386:9
	ldr	r0, [sp, #36]
.Ltmp88:
	.loc	4 386 9 is_stmt 0       @ ../../Library/Nuvoton/M251_252_Series/StdDriver/src/uart.c:386:9
	cmp	r0, #4
	bne	.LBB8_17
	b	.LBB8_12
.LBB8_12:
.Ltmp89:
	.loc	4 388 14 is_stmt 1      @ ../../Library/Nuvoton/M251_252_Series/StdDriver/src/uart.c:388:14
	ldr	r0, [sp, #52]
	ldr	r1, __arm_cp.8_1
	.loc	4 388 39 is_stmt 0      @ ../../Library/Nuvoton/M251_252_Series/StdDriver/src/uart.c:388:39
	cmp	r0, r1
	beq	.LBB8_14
	b	.LBB8_13
.LBB8_13:
	.loc	4 388 43                @ ../../Library/Nuvoton/M251_252_Series/StdDriver/src/uart.c:388:43
	ldr	r0, [sp, #52]
	ldr	r1, __arm_cp.8_3
.Ltmp90:
	.loc	4 388 13                @ ../../Library/Nuvoton/M251_252_Series/StdDriver/src/uart.c:388:13
	cmp	r0, r1
	bne	.LBB8_15
	b	.LBB8_14
.LBB8_14:
.Ltmp91:
	.loc	4 390 45 is_stmt 1      @ ../../Library/Nuvoton/M251_252_Series/StdDriver/src/uart.c:390:45
	bl	CLK_GetPCLK0Freq
	.loc	4 390 24 is_stmt 0      @ ../../Library/Nuvoton/M251_252_Series/StdDriver/src/uart.c:390:24
	ldr	r1, [sp, #36]
	.loc	4 390 13                @ ../../Library/Nuvoton/M251_252_Series/StdDriver/src/uart.c:390:13
	lsls	r1, r1, #2
	add	r2, sp, #8
	.loc	4 390 42                @ ../../Library/Nuvoton/M251_252_Series/StdDriver/src/uart.c:390:42
	str	r0, [r2, r1]
	.loc	4 391 9 is_stmt 1       @ ../../Library/Nuvoton/M251_252_Series/StdDriver/src/uart.c:391:9
	b	.LBB8_16
.Ltmp92:
.LBB8_15:
	.loc	4 394 45                @ ../../Library/Nuvoton/M251_252_Series/StdDriver/src/uart.c:394:45
	bl	CLK_GetPCLK1Freq
	.loc	4 394 24 is_stmt 0      @ ../../Library/Nuvoton/M251_252_Series/StdDriver/src/uart.c:394:24
	ldr	r1, [sp, #36]
	.loc	4 394 13                @ ../../Library/Nuvoton/M251_252_Series/StdDriver/src/uart.c:394:13
	lsls	r1, r1, #2
	add	r2, sp, #8
	.loc	4 394 42                @ ../../Library/Nuvoton/M251_252_Series/StdDriver/src/uart.c:394:42
	str	r0, [r2, r1]
	b	.LBB8_16
.Ltmp93:
.LBB8_16:
	.loc	4 396 5 is_stmt 1       @ ../../Library/Nuvoton/M251_252_Series/StdDriver/src/uart.c:396:5
	b	.LBB8_17
.Ltmp94:
.LBB8_17:
	.loc	4 400 9                 @ ../../Library/Nuvoton/M251_252_Series/StdDriver/src/uart.c:400:9
	ldr	r0, [sp, #48]
.Ltmp95:
	.loc	4 400 9 is_stmt 0       @ ../../Library/Nuvoton/M251_252_Series/StdDriver/src/uart.c:400:9
	cmp	r0, #0
	beq	.LBB8_22
	b	.LBB8_18
.LBB8_18:
.Ltmp96:
	.loc	4 402 23 is_stmt 1      @ ../../Library/Nuvoton/M251_252_Series/StdDriver/src/uart.c:402:23
	ldr	r0, [sp, #36]
	lsls	r0, r0, #2
	add	r1, sp, #8
	ldr	r0, [r1, r0]
	ldr	r1, [sp, #32]
	adds	r1, r1, #1
	udiv	r0, r0, r1
	ldr	r1, [sp, #48]
	lsrs	r2, r1, #1
	adds	r0, r0, r2
	udiv	r0, r0, r1
	subs	r0, r0, #2
	.loc	4 402 21 is_stmt 0      @ ../../Library/Nuvoton/M251_252_Series/StdDriver/src/uart.c:402:21
	str	r0, [sp, #4]
	add	r0, sp, #4
.Ltmp97:
	.loc	4 404 13 is_stmt 1      @ ../../Library/Nuvoton/M251_252_Series/StdDriver/src/uart.c:404:13
	ldrh	r0, [r0, #2]
.Ltmp98:
	.loc	4 404 13 is_stmt 0      @ ../../Library/Nuvoton/M251_252_Series/StdDriver/src/uart.c:404:13
	cmp	r0, #0
	beq	.LBB8_20
	b	.LBB8_19
.LBB8_19:
.Ltmp99:
	.loc	4 406 45 is_stmt 1      @ ../../Library/Nuvoton/M251_252_Series/StdDriver/src/uart.c:406:45
	ldr	r0, [sp, #36]
	lsls	r0, r0, #2
	add	r1, sp, #8
	ldr	r0, [r1, r0]
	ldr	r1, [sp, #32]
	adds	r1, r1, #1
	udiv	r0, r0, r1
	ldr	r1, [sp, #48]
	lsls	r2, r1, #3
	adds	r0, r0, r2
	udiv	r0, r0, r1
	lsrs	r0, r0, #4
	subs	r0, r0, #2
	.loc	4 406 13 is_stmt 0      @ ../../Library/Nuvoton/M251_252_Series/StdDriver/src/uart.c:406:13
	ldr	r1, [sp, #52]
	.loc	4 406 24                @ ../../Library/Nuvoton/M251_252_Series/StdDriver/src/uart.c:406:24
	str	r0, [r1, #36]
	.loc	4 407 9 is_stmt 1       @ ../../Library/Nuvoton/M251_252_Series/StdDriver/src/uart.c:407:9
	b	.LBB8_21
.Ltmp100:
.LBB8_20:
	.loc	4 410 45                @ ../../Library/Nuvoton/M251_252_Series/StdDriver/src/uart.c:410:45
	ldr	r0, [sp, #4]
	movs	r1, #3
	lsls	r1, r1, #28
	.loc	4 410 43 is_stmt 0      @ ../../Library/Nuvoton/M251_252_Series/StdDriver/src/uart.c:410:43
	orrs	r0, r1
	.loc	4 410 13                @ ../../Library/Nuvoton/M251_252_Series/StdDriver/src/uart.c:410:13
	ldr	r1, [sp, #52]
	.loc	4 410 24                @ ../../Library/Nuvoton/M251_252_Series/StdDriver/src/uart.c:410:24
	str	r0, [r1, #36]
	b	.LBB8_21
.Ltmp101:
.LBB8_21:
	.loc	4 412 5 is_stmt 1       @ ../../Library/Nuvoton/M251_252_Series/StdDriver/src/uart.c:412:5
	b	.LBB8_22
.Ltmp102:
.LBB8_22:
	.loc	4 415 18                @ ../../Library/Nuvoton/M251_252_Series/StdDriver/src/uart.c:415:18
	ldr	r0, [sp, #44]
	.loc	4 415 33 is_stmt 0      @ ../../Library/Nuvoton/M251_252_Series/StdDriver/src/uart.c:415:33
	ldr	r1, [sp, #40]
	.loc	4 415 31                @ ../../Library/Nuvoton/M251_252_Series/StdDriver/src/uart.c:415:31
	orrs	r0, r1
	.loc	4 415 45                @ ../../Library/Nuvoton/M251_252_Series/StdDriver/src/uart.c:415:45
	ldr	r1, [sp, #72]
	.loc	4 415 43                @ ../../Library/Nuvoton/M251_252_Series/StdDriver/src/uart.c:415:43
	orrs	r0, r1
	.loc	4 415 5                 @ ../../Library/Nuvoton/M251_252_Series/StdDriver/src/uart.c:415:5
	ldr	r1, [sp, #52]
	.loc	4 415 16                @ ../../Library/Nuvoton/M251_252_Series/StdDriver/src/uart.c:415:16
	str	r0, [r1, #12]
	.loc	4 416 1 is_stmt 1       @ ../../Library/Nuvoton/M251_252_Series/StdDriver/src/uart.c:416:1
	add	sp, #56
	pop	{r4, r5, r6, pc}
.Ltmp103:
	.p2align	2
@ %bb.23:
	.loc	4 0 1 is_stmt 0         @ ../../Library/Nuvoton/M251_252_Series/StdDriver/src/uart.c:0:1
__arm_cp.8_0:
	.long	.L__const.UART_SetLine_Config.au32ClkTbl
.Lcpi_end11:
	.size	__arm_cp.8_0, .Lcpi_end11-__arm_cp.8_0
__arm_cp.8_1:
	.long	1074200576              @ 0x40070000
.Lcpi_end12:
	.size	__arm_cp.8_1, .Lcpi_end12-__arm_cp.8_1
__arm_cp.8_2:
	.long	1074204672              @ 0x40071000
.Lcpi_end13:
	.size	__arm_cp.8_2, .Lcpi_end13-__arm_cp.8_2
__arm_cp.8_3:
	.long	1074208768              @ 0x40072000
.Lcpi_end14:
	.size	__arm_cp.8_3, .Lcpi_end14-__arm_cp.8_3
__arm_cp.8_4:
	.long	1073742364              @ 0x4000021c
.Lcpi_end15:
	.size	__arm_cp.8_4, .Lcpi_end15-__arm_cp.8_4
__arm_cp.8_5:
	.long	1073742384              @ 0x40000230
.Lcpi_end16:
	.size	__arm_cp.8_5, .Lcpi_end16-__arm_cp.8_5
__arm_cp.8_6:
	.long	1073742356              @ 0x40000214
.Lcpi_end17:
	.size	__arm_cp.8_6, .Lcpi_end17-__arm_cp.8_6
__arm_cp.8_7:
	.long	1073742368              @ 0x40000220
.Lcpi_end18:
	.size	__arm_cp.8_7, .Lcpi_end18-__arm_cp.8_7
.Lfunc_end8:
	.size	UART_SetLine_Config, .Lfunc_end8-UART_SetLine_Config
	.cfi_endproc
	.cantunwind
	.fnend
                                        @ -- End function
	.hidden	UART_SetTimeoutCnt      @ -- Begin function UART_SetTimeoutCnt
	.globl	UART_SetTimeoutCnt
	.p2align	1
	.type	UART_SetTimeoutCnt,%function
	.code	16                      @ @UART_SetTimeoutCnt
	.thumb_func
UART_SetTimeoutCnt:
.Lfunc_begin9:
	.loc	4 430 0 is_stmt 1       @ ../../Library/Nuvoton/M251_252_Series/StdDriver/src/uart.c:430:0
	.fnstart
	.cfi_startproc
@ %bb.0:
	.pad	#8
	sub	sp, #8
	.cfi_def_cfa_offset 8
	str	r0, [sp, #4]
	str	r1, [sp]
.Ltmp104:
	.loc	4 432 19 prologue_end   @ ../../Library/Nuvoton/M251_252_Series/StdDriver/src/uart.c:432:19
	ldr	r0, [sp, #4]
	.loc	4 432 25 is_stmt 0      @ ../../Library/Nuvoton/M251_252_Series/StdDriver/src/uart.c:432:25
	ldr	r0, [r0, #32]
	movs	r1, #255
	.loc	4 432 30                @ ../../Library/Nuvoton/M251_252_Series/StdDriver/src/uart.c:432:30
	bics	r0, r1
	.loc	4 432 56                @ ../../Library/Nuvoton/M251_252_Series/StdDriver/src/uart.c:432:56
	ldr	r1, [sp]
	.loc	4 432 53                @ ../../Library/Nuvoton/M251_252_Series/StdDriver/src/uart.c:432:53
	orrs	r0, r1
	.loc	4 432 5                 @ ../../Library/Nuvoton/M251_252_Series/StdDriver/src/uart.c:432:5
	ldr	r1, [sp, #4]
	.loc	4 432 16                @ ../../Library/Nuvoton/M251_252_Series/StdDriver/src/uart.c:432:16
	str	r0, [r1, #32]
	.loc	4 435 5 is_stmt 1       @ ../../Library/Nuvoton/M251_252_Series/StdDriver/src/uart.c:435:5
	ldr	r0, [sp, #4]
	.loc	4 435 17 is_stmt 0      @ ../../Library/Nuvoton/M251_252_Series/StdDriver/src/uart.c:435:17
	ldr	r1, [r0, #4]
	movw	r2, #2048
	orrs	r1, r2
	str	r1, [r0, #4]
	.loc	4 436 1 is_stmt 1       @ ../../Library/Nuvoton/M251_252_Series/StdDriver/src/uart.c:436:1
	add	sp, #8
	bx	lr
.Ltmp105:
.Lfunc_end9:
	.size	UART_SetTimeoutCnt, .Lfunc_end9-UART_SetTimeoutCnt
	.cfi_endproc
	.cantunwind
	.fnend
                                        @ -- End function
	.hidden	UART_SelectIrDAMode     @ -- Begin function UART_SelectIrDAMode
	.globl	UART_SelectIrDAMode
	.p2align	2
	.type	UART_SelectIrDAMode,%function
	.code	16                      @ @UART_SelectIrDAMode
	.thumb_func
UART_SelectIrDAMode:
.Lfunc_begin10:
	.loc	4 453 0                 @ ../../Library/Nuvoton/M251_252_Series/StdDriver/src/uart.c:453:0
	.fnstart
	.cfi_startproc
@ %bb.0:
	.save	{r4, lr}
	push	{r4, lr}
	.cfi_def_cfa_offset 8
	.cfi_offset lr, -4
	.cfi_offset r4, -8
	.pad	#48
	sub	sp, #48
	.cfi_def_cfa_offset 56
	str	r0, [sp, #44]
	str	r1, [sp, #40]
	str	r2, [sp, #36]
	movs	r0, #0
.Ltmp106:
	.loc	4 454 14 prologue_end   @ ../../Library/Nuvoton/M251_252_Series/StdDriver/src/uart.c:454:14
	str	r0, [sp, #32]
	.loc	4 454 38 is_stmt 0      @ ../../Library/Nuvoton/M251_252_Series/StdDriver/src/uart.c:454:38
	str	r0, [sp, #28]
	.loc	4 455 14 is_stmt 1      @ ../../Library/Nuvoton/M251_252_Series/StdDriver/src/uart.c:455:14
	ldr	r0, __arm_cp.10_0
	add	r1, sp, #4
	ldm	r0!, {r2, r3, r4}
	stm	r1!, {r2, r3, r4}
	ldm	r0!, {r2, r3, r4}
	stm	r1!, {r2, r3, r4}
	.loc	4 459 5                 @ ../../Library/Nuvoton/M251_252_Series/StdDriver/src/uart.c:459:5
	ldr	r0, [sp, #44]
	movs	r1, #2
	.loc	4 459 19 is_stmt 0      @ ../../Library/Nuvoton/M251_252_Series/StdDriver/src/uart.c:459:19
	str	r1, [r0, #48]
.Ltmp107:
	.loc	4 462 9 is_stmt 1       @ ../../Library/Nuvoton/M251_252_Series/StdDriver/src/uart.c:462:9
	ldr	r0, [sp, #44]
	ldr	r1, __arm_cp.10_1
.Ltmp108:
	.loc	4 462 9 is_stmt 0       @ ../../Library/Nuvoton/M251_252_Series/StdDriver/src/uart.c:462:9
	cmp	r0, r1
	bne	.LBB10_2
	b	.LBB10_1
.LBB10_1:
	.loc	4 0 9                   @ ../../Library/Nuvoton/M251_252_Series/StdDriver/src/uart.c:0:9
	ldr	r0, __arm_cp.10_6
.Ltmp109:
	.loc	4 465 34 is_stmt 1      @ ../../Library/Nuvoton/M251_252_Series/StdDriver/src/uart.c:465:34
	ldr	r0, [r0]
	movs	r1, #7
	lsls	r1, r1, #24
	.loc	4 465 42 is_stmt 0      @ ../../Library/Nuvoton/M251_252_Series/StdDriver/src/uart.c:465:42
	ands	r0, r1
	.loc	4 465 70                @ ../../Library/Nuvoton/M251_252_Series/StdDriver/src/uart.c:465:70
	lsrs	r0, r0, #24
	.loc	4 465 26                @ ../../Library/Nuvoton/M251_252_Series/StdDriver/src/uart.c:465:26
	str	r0, [sp, #32]
	ldr	r0, __arm_cp.10_7
	.loc	4 467 34 is_stmt 1      @ ../../Library/Nuvoton/M251_252_Series/StdDriver/src/uart.c:467:34
	ldr	r0, [r0]
	movw	r1, #3840
	.loc	4 467 42 is_stmt 0      @ ../../Library/Nuvoton/M251_252_Series/StdDriver/src/uart.c:467:42
	ands	r0, r1
	.loc	4 467 70                @ ../../Library/Nuvoton/M251_252_Series/StdDriver/src/uart.c:467:70
	lsrs	r0, r0, #8
	.loc	4 467 26                @ ../../Library/Nuvoton/M251_252_Series/StdDriver/src/uart.c:467:26
	str	r0, [sp, #28]
	.loc	4 468 5 is_stmt 1       @ ../../Library/Nuvoton/M251_252_Series/StdDriver/src/uart.c:468:5
	b	.LBB10_9
.Ltmp110:
.LBB10_2:
	.loc	4 469 14                @ ../../Library/Nuvoton/M251_252_Series/StdDriver/src/uart.c:469:14
	ldr	r0, [sp, #44]
	ldr	r1, __arm_cp.10_2
.Ltmp111:
	.loc	4 469 14 is_stmt 0      @ ../../Library/Nuvoton/M251_252_Series/StdDriver/src/uart.c:469:14
	cmp	r0, r1
	bne	.LBB10_4
	b	.LBB10_3
.LBB10_3:
	.loc	4 0 14                  @ ../../Library/Nuvoton/M251_252_Series/StdDriver/src/uart.c:0:14
	ldr	r0, __arm_cp.10_6
.Ltmp112:
	.loc	4 472 34 is_stmt 1      @ ../../Library/Nuvoton/M251_252_Series/StdDriver/src/uart.c:472:34
	ldr	r0, [r0]
	movs	r1, #7
	lsls	r1, r1, #28
	.loc	4 472 42 is_stmt 0      @ ../../Library/Nuvoton/M251_252_Series/StdDriver/src/uart.c:472:42
	ands	r0, r1
	.loc	4 472 70                @ ../../Library/Nuvoton/M251_252_Series/StdDriver/src/uart.c:472:70
	lsrs	r0, r0, #28
	.loc	4 472 26                @ ../../Library/Nuvoton/M251_252_Series/StdDriver/src/uart.c:472:26
	str	r0, [sp, #32]
	ldr	r0, __arm_cp.10_7
	.loc	4 474 34 is_stmt 1      @ ../../Library/Nuvoton/M251_252_Series/StdDriver/src/uart.c:474:34
	ldr	r0, [r0]
	.loc	4 474 42 is_stmt 0      @ ../../Library/Nuvoton/M251_252_Series/StdDriver/src/uart.c:474:42
	uxth	r0, r0
	.loc	4 474 70                @ ../../Library/Nuvoton/M251_252_Series/StdDriver/src/uart.c:474:70
	lsrs	r0, r0, #12
	.loc	4 474 26                @ ../../Library/Nuvoton/M251_252_Series/StdDriver/src/uart.c:474:26
	str	r0, [sp, #28]
	.loc	4 475 5 is_stmt 1       @ ../../Library/Nuvoton/M251_252_Series/StdDriver/src/uart.c:475:5
	b	.LBB10_8
.Ltmp113:
.LBB10_4:
	.loc	4 476 14                @ ../../Library/Nuvoton/M251_252_Series/StdDriver/src/uart.c:476:14
	ldr	r0, [sp, #44]
	ldr	r1, __arm_cp.10_3
.Ltmp114:
	.loc	4 476 14 is_stmt 0      @ ../../Library/Nuvoton/M251_252_Series/StdDriver/src/uart.c:476:14
	cmp	r0, r1
	bne	.LBB10_6
	b	.LBB10_5
.LBB10_5:
	.loc	4 0 14                  @ ../../Library/Nuvoton/M251_252_Series/StdDriver/src/uart.c:0:14
	ldr	r0, __arm_cp.10_4
.Ltmp115:
	.loc	4 479 34 is_stmt 1      @ ../../Library/Nuvoton/M251_252_Series/StdDriver/src/uart.c:479:34
	ldr	r0, [r0]
	movs	r1, #7
	lsls	r1, r1, #24
	.loc	4 479 42 is_stmt 0      @ ../../Library/Nuvoton/M251_252_Series/StdDriver/src/uart.c:479:42
	ands	r0, r1
	.loc	4 479 70                @ ../../Library/Nuvoton/M251_252_Series/StdDriver/src/uart.c:479:70
	lsrs	r0, r0, #24
	.loc	4 479 26                @ ../../Library/Nuvoton/M251_252_Series/StdDriver/src/uart.c:479:26
	str	r0, [sp, #32]
	ldr	r0, __arm_cp.10_5
	.loc	4 481 34 is_stmt 1      @ ../../Library/Nuvoton/M251_252_Series/StdDriver/src/uart.c:481:34
	ldr	r0, [r0]
	movs	r1, #15
	.loc	4 481 42 is_stmt 0      @ ../../Library/Nuvoton/M251_252_Series/StdDriver/src/uart.c:481:42
	ands	r0, r1
	.loc	4 481 26                @ ../../Library/Nuvoton/M251_252_Series/StdDriver/src/uart.c:481:26
	str	r0, [sp, #28]
	.loc	4 482 5 is_stmt 1       @ ../../Library/Nuvoton/M251_252_Series/StdDriver/src/uart.c:482:5
	b	.LBB10_7
.Ltmp116:
.LBB10_6:
	.loc	4 0 5 is_stmt 0         @ ../../Library/Nuvoton/M251_252_Series/StdDriver/src/uart.c:0:5
	b	.LBB10_7
.LBB10_7:
	b	.LBB10_8
.LBB10_8:
	b	.LBB10_9
.LBB10_9:
.Ltmp117:
	.loc	4 489 9 is_stmt 1       @ ../../Library/Nuvoton/M251_252_Series/StdDriver/src/uart.c:489:9
	ldr	r0, [sp, #32]
.Ltmp118:
	.loc	4 489 9 is_stmt 0       @ ../../Library/Nuvoton/M251_252_Series/StdDriver/src/uart.c:489:9
	cmp	r0, #1
	bne	.LBB10_11
	b	.LBB10_10
.LBB10_10:
.Ltmp119:
	.loc	4 491 40 is_stmt 1      @ ../../Library/Nuvoton/M251_252_Series/StdDriver/src/uart.c:491:40
	bl	CLK_GetPLLClockFreq
	.loc	4 491 20 is_stmt 0      @ ../../Library/Nuvoton/M251_252_Series/StdDriver/src/uart.c:491:20
	ldr	r1, [sp, #32]
	.loc	4 491 9                 @ ../../Library/Nuvoton/M251_252_Series/StdDriver/src/uart.c:491:9
	lsls	r1, r1, #2
	add	r2, sp, #4
	.loc	4 491 38                @ ../../Library/Nuvoton/M251_252_Series/StdDriver/src/uart.c:491:38
	str	r0, [r2, r1]
	.loc	4 492 5 is_stmt 1       @ ../../Library/Nuvoton/M251_252_Series/StdDriver/src/uart.c:492:5
	b	.LBB10_11
.Ltmp120:
.LBB10_11:
	.loc	4 495 9                 @ ../../Library/Nuvoton/M251_252_Series/StdDriver/src/uart.c:495:9
	ldr	r0, [sp, #32]
.Ltmp121:
	.loc	4 495 9 is_stmt 0       @ ../../Library/Nuvoton/M251_252_Series/StdDriver/src/uart.c:495:9
	cmp	r0, #4
	bne	.LBB10_17
	b	.LBB10_12
.LBB10_12:
.Ltmp122:
	.loc	4 497 14 is_stmt 1      @ ../../Library/Nuvoton/M251_252_Series/StdDriver/src/uart.c:497:14
	ldr	r0, [sp, #44]
	ldr	r1, __arm_cp.10_1
	.loc	4 497 39 is_stmt 0      @ ../../Library/Nuvoton/M251_252_Series/StdDriver/src/uart.c:497:39
	cmp	r0, r1
	beq	.LBB10_14
	b	.LBB10_13
.LBB10_13:
	.loc	4 497 43                @ ../../Library/Nuvoton/M251_252_Series/StdDriver/src/uart.c:497:43
	ldr	r0, [sp, #44]
	ldr	r1, __arm_cp.10_3
.Ltmp123:
	.loc	4 497 13                @ ../../Library/Nuvoton/M251_252_Series/StdDriver/src/uart.c:497:13
	cmp	r0, r1
	bne	.LBB10_15
	b	.LBB10_14
.LBB10_14:
.Ltmp124:
	.loc	4 499 45 is_stmt 1      @ ../../Library/Nuvoton/M251_252_Series/StdDriver/src/uart.c:499:45
	bl	CLK_GetPCLK0Freq
	.loc	4 499 24 is_stmt 0      @ ../../Library/Nuvoton/M251_252_Series/StdDriver/src/uart.c:499:24
	ldr	r1, [sp, #32]
	.loc	4 499 13                @ ../../Library/Nuvoton/M251_252_Series/StdDriver/src/uart.c:499:13
	lsls	r1, r1, #2
	add	r2, sp, #4
	.loc	4 499 42                @ ../../Library/Nuvoton/M251_252_Series/StdDriver/src/uart.c:499:42
	str	r0, [r2, r1]
	.loc	4 500 9 is_stmt 1       @ ../../Library/Nuvoton/M251_252_Series/StdDriver/src/uart.c:500:9
	b	.LBB10_16
.Ltmp125:
.LBB10_15:
	.loc	4 503 45                @ ../../Library/Nuvoton/M251_252_Series/StdDriver/src/uart.c:503:45
	bl	CLK_GetPCLK1Freq
	.loc	4 503 24 is_stmt 0      @ ../../Library/Nuvoton/M251_252_Series/StdDriver/src/uart.c:503:24
	ldr	r1, [sp, #32]
	.loc	4 503 13                @ ../../Library/Nuvoton/M251_252_Series/StdDriver/src/uart.c:503:13
	lsls	r1, r1, #2
	add	r2, sp, #4
	.loc	4 503 42                @ ../../Library/Nuvoton/M251_252_Series/StdDriver/src/uart.c:503:42
	str	r0, [r2, r1]
	b	.LBB10_16
.Ltmp126:
.LBB10_16:
	.loc	4 505 5 is_stmt 1       @ ../../Library/Nuvoton/M251_252_Series/StdDriver/src/uart.c:505:5
	b	.LBB10_17
.Ltmp127:
.LBB10_17:
	.loc	4 509 9                 @ ../../Library/Nuvoton/M251_252_Series/StdDriver/src/uart.c:509:9
	ldr	r0, [sp, #40]
.Ltmp128:
	.loc	4 509 9 is_stmt 0       @ ../../Library/Nuvoton/M251_252_Series/StdDriver/src/uart.c:509:9
	cmp	r0, #0
	beq	.LBB10_22
	b	.LBB10_18
.LBB10_18:
.Ltmp129:
	.loc	4 511 23 is_stmt 1      @ ../../Library/Nuvoton/M251_252_Series/StdDriver/src/uart.c:511:23
	ldr	r0, [sp, #32]
	lsls	r0, r0, #2
	add	r1, sp, #4
	ldr	r0, [r1, r0]
	ldr	r1, [sp, #28]
	adds	r1, r1, #1
	udiv	r0, r0, r1
	ldr	r1, [sp, #40]
	lsls	r2, r1, #3
	adds	r0, r0, r2
	udiv	r0, r0, r1
	lsrs	r0, r0, #4
	subs	r0, r0, #2
	.loc	4 511 21 is_stmt 0      @ ../../Library/Nuvoton/M251_252_Series/StdDriver/src/uart.c:511:21
	str	r0, [sp]
.Ltmp130:
	.loc	4 513 13 is_stmt 1      @ ../../Library/Nuvoton/M251_252_Series/StdDriver/src/uart.c:513:13
	ldr	r0, [sp]
	ldr	r1, __arm_cp.10_8
.Ltmp131:
	.loc	4 513 13 is_stmt 0      @ ../../Library/Nuvoton/M251_252_Series/StdDriver/src/uart.c:513:13
	cmp	r0, r1
	bhi	.LBB10_20
	b	.LBB10_19
.LBB10_19:
.Ltmp132:
	.loc	4 515 45 is_stmt 1      @ ../../Library/Nuvoton/M251_252_Series/StdDriver/src/uart.c:515:45
	ldr	r0, [sp]
	.loc	4 515 13 is_stmt 0      @ ../../Library/Nuvoton/M251_252_Series/StdDriver/src/uart.c:515:13
	ldr	r1, [sp, #44]
	.loc	4 515 24                @ ../../Library/Nuvoton/M251_252_Series/StdDriver/src/uart.c:515:24
	str	r0, [r1, #36]
	.loc	4 516 9 is_stmt 1       @ ../../Library/Nuvoton/M251_252_Series/StdDriver/src/uart.c:516:9
	b	.LBB10_21
.Ltmp133:
.LBB10_20:
	.loc	4 0 9 is_stmt 0         @ ../../Library/Nuvoton/M251_252_Series/StdDriver/src/uart.c:0:9
	b	.LBB10_21
.LBB10_21:
	.loc	4 520 5 is_stmt 1       @ ../../Library/Nuvoton/M251_252_Series/StdDriver/src/uart.c:520:5
	b	.LBB10_22
.Ltmp134:
.LBB10_22:
	.loc	4 523 9                 @ ../../Library/Nuvoton/M251_252_Series/StdDriver/src/uart.c:523:9
	ldr	r0, [sp, #36]
.Ltmp135:
	.loc	4 523 9 is_stmt 0       @ ../../Library/Nuvoton/M251_252_Series/StdDriver/src/uart.c:523:9
	cmp	r0, #0
	bne	.LBB10_24
	b	.LBB10_23
.LBB10_23:
.Ltmp136:
	.loc	4 525 9 is_stmt 1       @ ../../Library/Nuvoton/M251_252_Series/StdDriver/src/uart.c:525:9
	ldr	r0, [sp, #44]
	.loc	4 525 20 is_stmt 0      @ ../../Library/Nuvoton/M251_252_Series/StdDriver/src/uart.c:525:20
	ldr	r1, [r0, #40]
	movs	r2, #64
	orrs	r1, r2
	str	r1, [r0, #40]
	.loc	4 526 9 is_stmt 1       @ ../../Library/Nuvoton/M251_252_Series/StdDriver/src/uart.c:526:9
	ldr	r0, [sp, #44]
	.loc	4 526 20 is_stmt 0      @ ../../Library/Nuvoton/M251_252_Series/StdDriver/src/uart.c:526:20
	ldr	r1, [r0, #40]
	movs	r2, #2
	bics	r1, r2
	str	r1, [r0, #40]
	.loc	4 527 5 is_stmt 1       @ ../../Library/Nuvoton/M251_252_Series/StdDriver/src/uart.c:527:5
	b	.LBB10_25
.Ltmp137:
.LBB10_24:
	.loc	4 530 9                 @ ../../Library/Nuvoton/M251_252_Series/StdDriver/src/uart.c:530:9
	ldr	r0, [sp, #44]
	.loc	4 530 20 is_stmt 0      @ ../../Library/Nuvoton/M251_252_Series/StdDriver/src/uart.c:530:20
	ldr	r1, [r0, #40]
	movs	r2, #32
	bics	r1, r2
	str	r1, [r0, #40]
	.loc	4 531 9 is_stmt 1       @ ../../Library/Nuvoton/M251_252_Series/StdDriver/src/uart.c:531:9
	ldr	r0, [sp, #44]
	.loc	4 531 20 is_stmt 0      @ ../../Library/Nuvoton/M251_252_Series/StdDriver/src/uart.c:531:20
	ldr	r1, [r0, #40]
	movs	r2, #2
	orrs	r1, r2
	str	r1, [r0, #40]
	b	.LBB10_25
.Ltmp138:
.LBB10_25:
	.loc	4 534 1 is_stmt 1       @ ../../Library/Nuvoton/M251_252_Series/StdDriver/src/uart.c:534:1
	add	sp, #48
	pop	{r4, pc}
.Ltmp139:
	.p2align	2
@ %bb.26:
	.loc	4 0 1 is_stmt 0         @ ../../Library/Nuvoton/M251_252_Series/StdDriver/src/uart.c:0:1
__arm_cp.10_0:
	.long	.L__const.UART_SelectIrDAMode.au32ClkTbl
.Lcpi_end19:
	.size	__arm_cp.10_0, .Lcpi_end19-__arm_cp.10_0
__arm_cp.10_1:
	.long	1074200576              @ 0x40070000
.Lcpi_end20:
	.size	__arm_cp.10_1, .Lcpi_end20-__arm_cp.10_1
__arm_cp.10_2:
	.long	1074204672              @ 0x40071000
.Lcpi_end21:
	.size	__arm_cp.10_2, .Lcpi_end21-__arm_cp.10_2
__arm_cp.10_3:
	.long	1074208768              @ 0x40072000
.Lcpi_end22:
	.size	__arm_cp.10_3, .Lcpi_end22-__arm_cp.10_3
__arm_cp.10_4:
	.long	1073742364              @ 0x4000021c
.Lcpi_end23:
	.size	__arm_cp.10_4, .Lcpi_end23-__arm_cp.10_4
__arm_cp.10_5:
	.long	1073742384              @ 0x40000230
.Lcpi_end24:
	.size	__arm_cp.10_5, .Lcpi_end24-__arm_cp.10_5
__arm_cp.10_6:
	.long	1073742356              @ 0x40000214
.Lcpi_end25:
	.size	__arm_cp.10_6, .Lcpi_end25-__arm_cp.10_6
__arm_cp.10_7:
	.long	1073742368              @ 0x40000220
.Lcpi_end26:
	.size	__arm_cp.10_7, .Lcpi_end26-__arm_cp.10_7
__arm_cp.10_8:
	.long	65534                   @ 0xfffe
.Lcpi_end27:
	.size	__arm_cp.10_8, .Lcpi_end27-__arm_cp.10_8
.Lfunc_end10:
	.size	UART_SelectIrDAMode, .Lfunc_end10-UART_SelectIrDAMode
	.cfi_endproc
	.cantunwind
	.fnend
                                        @ -- End function
	.hidden	UART_SelectRS485Mode    @ -- Begin function UART_SelectRS485Mode
	.globl	UART_SelectRS485Mode
	.p2align	2
	.type	UART_SelectRS485Mode,%function
	.code	16                      @ @UART_SelectRS485Mode
	.thumb_func
UART_SelectRS485Mode:
.Lfunc_begin11:
	.loc	4 552 0 is_stmt 1       @ ../../Library/Nuvoton/M251_252_Series/StdDriver/src/uart.c:552:0
	.fnstart
	.cfi_startproc
@ %bb.0:
	.pad	#12
	sub	sp, #12
	.cfi_def_cfa_offset 12
	str	r0, [sp, #8]
	str	r1, [sp, #4]
	str	r2, [sp]
.Ltmp140:
	.loc	4 554 5 prologue_end    @ ../../Library/Nuvoton/M251_252_Series/StdDriver/src/uart.c:554:5
	ldr	r0, [sp, #8]
	movs	r1, #3
	.loc	4 554 19 is_stmt 0      @ ../../Library/Nuvoton/M251_252_Series/StdDriver/src/uart.c:554:19
	str	r1, [r0, #48]
	.loc	4 557 5 is_stmt 1       @ ../../Library/Nuvoton/M251_252_Series/StdDriver/src/uart.c:557:5
	ldr	r0, [sp, #8]
	.loc	4 557 18 is_stmt 0      @ ../../Library/Nuvoton/M251_252_Series/StdDriver/src/uart.c:557:18
	ldr	r1, [r0, #44]
	ldr	r2, __arm_cp.11_0
	ands	r1, r2
	str	r1, [r0, #44]
	.loc	4 558 22 is_stmt 1      @ ../../Library/Nuvoton/M251_252_Series/StdDriver/src/uart.c:558:22
	ldr	r0, [sp, #4]
	.loc	4 558 33 is_stmt 0      @ ../../Library/Nuvoton/M251_252_Series/StdDriver/src/uart.c:558:33
	ldr	r1, [sp]
	.loc	4 558 41                @ ../../Library/Nuvoton/M251_252_Series/StdDriver/src/uart.c:558:41
	lsls	r1, r1, #24
	.loc	4 558 30                @ ../../Library/Nuvoton/M251_252_Series/StdDriver/src/uart.c:558:30
	orrs	r0, r1
	.loc	4 558 5                 @ ../../Library/Nuvoton/M251_252_Series/StdDriver/src/uart.c:558:5
	ldr	r1, [sp, #8]
	.loc	4 558 18                @ ../../Library/Nuvoton/M251_252_Series/StdDriver/src/uart.c:558:18
	ldr	r2, [r1, #44]
	orrs	r2, r0
	str	r2, [r1, #44]
	.loc	4 559 1 is_stmt 1       @ ../../Library/Nuvoton/M251_252_Series/StdDriver/src/uart.c:559:1
	add	sp, #12
	bx	lr
.Ltmp141:
	.p2align	2
@ %bb.1:
	.loc	4 0 1 is_stmt 0         @ ../../Library/Nuvoton/M251_252_Series/StdDriver/src/uart.c:0:1
__arm_cp.11_0:
	.long	16775423                @ 0xfff8ff
.Lcpi_end28:
	.size	__arm_cp.11_0, .Lcpi_end28-__arm_cp.11_0
.Lfunc_end11:
	.size	UART_SelectRS485Mode, .Lfunc_end11-UART_SelectRS485Mode
	.cfi_endproc
	.cantunwind
	.fnend
                                        @ -- End function
	.hidden	UART_SelectLINMode      @ -- Begin function UART_SelectLINMode
	.globl	UART_SelectLINMode
	.p2align	1
	.type	UART_SelectLINMode,%function
	.code	16                      @ @UART_SelectLINMode
	.thumb_func
UART_SelectLINMode:
.Lfunc_begin12:
	.loc	4 576 0 is_stmt 1       @ ../../Library/Nuvoton/M251_252_Series/StdDriver/src/uart.c:576:0
	.fnstart
	.cfi_startproc
@ %bb.0:
	.pad	#12
	sub	sp, #12
	.cfi_def_cfa_offset 12
	str	r0, [sp, #8]
	str	r1, [sp, #4]
	str	r2, [sp]
.Ltmp142:
	.loc	4 578 5 prologue_end    @ ../../Library/Nuvoton/M251_252_Series/StdDriver/src/uart.c:578:5
	ldr	r0, [sp, #8]
	movs	r1, #1
	.loc	4 578 19 is_stmt 0      @ ../../Library/Nuvoton/M251_252_Series/StdDriver/src/uart.c:578:19
	str	r1, [r0, #48]
	.loc	4 581 5 is_stmt 1       @ ../../Library/Nuvoton/M251_252_Series/StdDriver/src/uart.c:581:5
	ldr	r0, [sp, #8]
	.loc	4 581 18 is_stmt 0      @ ../../Library/Nuvoton/M251_252_Series/StdDriver/src/uart.c:581:18
	ldr	r1, [r0, #44]
	movs	r2, #207
	bics	r1, r2
	str	r1, [r0, #44]
	.loc	4 582 22 is_stmt 1      @ ../../Library/Nuvoton/M251_252_Series/StdDriver/src/uart.c:582:22
	ldr	r0, [sp, #4]
	.loc	4 582 33 is_stmt 0      @ ../../Library/Nuvoton/M251_252_Series/StdDriver/src/uart.c:582:33
	ldr	r1, [sp]
	.loc	4 582 30                @ ../../Library/Nuvoton/M251_252_Series/StdDriver/src/uart.c:582:30
	orrs	r0, r1
	.loc	4 582 5                 @ ../../Library/Nuvoton/M251_252_Series/StdDriver/src/uart.c:582:5
	ldr	r1, [sp, #8]
	.loc	4 582 18                @ ../../Library/Nuvoton/M251_252_Series/StdDriver/src/uart.c:582:18
	ldr	r2, [r1, #44]
	orrs	r2, r0
	str	r2, [r1, #44]
	.loc	4 583 1 is_stmt 1       @ ../../Library/Nuvoton/M251_252_Series/StdDriver/src/uart.c:583:1
	add	sp, #12
	bx	lr
.Ltmp143:
.Lfunc_end12:
	.size	UART_SelectLINMode, .Lfunc_end12-UART_SelectLINMode
	.cfi_endproc
	.cantunwind
	.fnend
                                        @ -- End function
	.hidden	UART_Write              @ -- Begin function UART_Write
	.globl	UART_Write
	.p2align	1
	.type	UART_Write,%function
	.code	16                      @ @UART_Write
	.thumb_func
UART_Write:
.Lfunc_begin13:
	.loc	4 598 0                 @ ../../Library/Nuvoton/M251_252_Series/StdDriver/src/uart.c:598:0
	.fnstart
	.cfi_startproc
@ %bb.0:
	.pad	#24
	sub	sp, #24
	.cfi_def_cfa_offset 24
	str	r0, [sp, #20]
	str	r1, [sp, #16]
	str	r2, [sp, #12]
	movs	r0, #0
.Ltmp144:
	.loc	4 600 15 prologue_end   @ ../../Library/Nuvoton/M251_252_Series/StdDriver/src/uart.c:600:15
	str	r0, [sp]
.Ltmp145:
	.loc	4 602 19                @ ../../Library/Nuvoton/M251_252_Series/StdDriver/src/uart.c:602:19
	str	r0, [sp, #8]
	.loc	4 602 10 is_stmt 0      @ ../../Library/Nuvoton/M251_252_Series/StdDriver/src/uart.c:602:10
	b	.LBB13_1
.LBB13_1:                               @ =>This Loop Header: Depth=1
                                        @     Child Loop BB13_3 Depth 2
.Ltmp146:
	.loc	4 602 26                @ ../../Library/Nuvoton/M251_252_Series/StdDriver/src/uart.c:602:26
	ldr	r0, [sp, #8]
	.loc	4 602 38                @ ../../Library/Nuvoton/M251_252_Series/StdDriver/src/uart.c:602:38
	ldr	r1, [sp, #12]
.Ltmp147:
	.loc	4 602 5                 @ ../../Library/Nuvoton/M251_252_Series/StdDriver/src/uart.c:602:5
	cmp	r0, r1
	beq	.LBB13_13
	b	.LBB13_2
.LBB13_2:                               @   in Loop: Header=BB13_1 Depth=1
	.loc	4 0 5                   @ ../../Library/Nuvoton/M251_252_Series/StdDriver/src/uart.c:0:5
	movs	r0, #0
.Ltmp148:
	.loc	4 604 21 is_stmt 1      @ ../../Library/Nuvoton/M251_252_Series/StdDriver/src/uart.c:604:21
	str	r0, [sp, #4]
	.loc	4 606 9                 @ ../../Library/Nuvoton/M251_252_Series/StdDriver/src/uart.c:606:9
	b	.LBB13_3
.LBB13_3:                               @   Parent Loop BB13_1 Depth=1
                                        @ =>  This Inner Loop Header: Depth=2
	.loc	4 606 16 is_stmt 0      @ ../../Library/Nuvoton/M251_252_Series/StdDriver/src/uart.c:606:16
	ldr	r0, [sp, #20]
	.loc	4 606 22                @ ../../Library/Nuvoton/M251_252_Series/StdDriver/src/uart.c:606:22
	ldr	r0, [r0, #24]
	.loc	4 606 9                 @ ../../Library/Nuvoton/M251_252_Series/StdDriver/src/uart.c:606:9
	lsls	r0, r0, #8
	cmp	r0, #0
	bpl	.LBB13_8
	b	.LBB13_4
.LBB13_4:                               @   in Loop: Header=BB13_3 Depth=2
.Ltmp149:
	.loc	4 608 24 is_stmt 1      @ ../../Library/Nuvoton/M251_252_Series/StdDriver/src/uart.c:608:24
	ldr	r0, [sp, #4]
	adds	r0, r0, #1
	str	r0, [sp, #4]
.Ltmp150:
	.loc	4 610 17                @ ../../Library/Nuvoton/M251_252_Series/StdDriver/src/uart.c:610:17
	ldr	r0, [sp, #4]
.Ltmp151:
	.loc	4 610 17 is_stmt 0      @ ../../Library/Nuvoton/M251_252_Series/StdDriver/src/uart.c:610:17
	lsrs	r0, r0, #30
	cmp	r0, #0
	beq	.LBB13_6
	b	.LBB13_5
.LBB13_5:                               @   in Loop: Header=BB13_1 Depth=1
	.loc	4 0 17                  @ ../../Library/Nuvoton/M251_252_Series/StdDriver/src/uart.c:0:17
	movs	r0, #1
.Ltmp152:
	.loc	4 612 25 is_stmt 1      @ ../../Library/Nuvoton/M251_252_Series/StdDriver/src/uart.c:612:25
	str	r0, [sp]
	.loc	4 613 17                @ ../../Library/Nuvoton/M251_252_Series/StdDriver/src/uart.c:613:17
	b	.LBB13_8
.Ltmp153:
.LBB13_6:                               @   in Loop: Header=BB13_3 Depth=2
	.loc	4 0 17 is_stmt 0        @ ../../Library/Nuvoton/M251_252_Series/StdDriver/src/uart.c:0:17
	b	.LBB13_7
.LBB13_7:                               @   in Loop: Header=BB13_3 Depth=2
	.loc	4 606 9 is_stmt 1       @ ../../Library/Nuvoton/M251_252_Series/StdDriver/src/uart.c:606:9
	b	.LBB13_3
.LBB13_8:                               @   in Loop: Header=BB13_1 Depth=1
.Ltmp154:
	.loc	4 620 13                @ ../../Library/Nuvoton/M251_252_Series/StdDriver/src/uart.c:620:13
	ldr	r0, [sp]
.Ltmp155:
	.loc	4 620 13 is_stmt 0      @ ../../Library/Nuvoton/M251_252_Series/StdDriver/src/uart.c:620:13
	cmp	r0, #1
	bne	.LBB13_10
	b	.LBB13_9
.LBB13_9:
.Ltmp156:
	.loc	4 622 13 is_stmt 1      @ ../../Library/Nuvoton/M251_252_Series/StdDriver/src/uart.c:622:13
	b	.LBB13_13
.Ltmp157:
.LBB13_10:                              @   in Loop: Header=BB13_1 Depth=1
	.loc	4 626 25                @ ../../Library/Nuvoton/M251_252_Series/StdDriver/src/uart.c:626:25
	ldr	r0, [sp, #16]
	.loc	4 626 34 is_stmt 0      @ ../../Library/Nuvoton/M251_252_Series/StdDriver/src/uart.c:626:34
	ldr	r1, [sp, #8]
	.loc	4 626 25                @ ../../Library/Nuvoton/M251_252_Series/StdDriver/src/uart.c:626:25
	ldrb	r0, [r0, r1]
	.loc	4 626 13                @ ../../Library/Nuvoton/M251_252_Series/StdDriver/src/uart.c:626:13
	ldr	r1, [sp, #20]
	.loc	4 626 23                @ ../../Library/Nuvoton/M251_252_Series/StdDriver/src/uart.c:626:23
	str	r0, [r1]
	b	.LBB13_11
.Ltmp158:
.LBB13_11:                              @   in Loop: Header=BB13_1 Depth=1
	.loc	4 628 5 is_stmt 1       @ ../../Library/Nuvoton/M251_252_Series/StdDriver/src/uart.c:628:5
	b	.LBB13_12
.Ltmp159:
.LBB13_12:                              @   in Loop: Header=BB13_1 Depth=1
	.loc	4 602 61                @ ../../Library/Nuvoton/M251_252_Series/StdDriver/src/uart.c:602:61
	ldr	r0, [sp, #8]
	adds	r0, r0, #1
	str	r0, [sp, #8]
	.loc	4 602 5 is_stmt 0       @ ../../Library/Nuvoton/M251_252_Series/StdDriver/src/uart.c:602:5
	b	.LBB13_1
.Ltmp160:
.LBB13_13:
	.loc	4 630 12 is_stmt 1      @ ../../Library/Nuvoton/M251_252_Series/StdDriver/src/uart.c:630:12
	ldr	r0, [sp, #8]
	.loc	4 630 5 is_stmt 0       @ ../../Library/Nuvoton/M251_252_Series/StdDriver/src/uart.c:630:5
	add	sp, #24
	bx	lr
.Ltmp161:
.Lfunc_end13:
	.size	UART_Write, .Lfunc_end13-UART_Write
	.cfi_endproc
	.cantunwind
	.fnend
                                        @ -- End function
	.hidden	UART_SelectSingleWireMode @ -- Begin function UART_SelectSingleWireMode
	.globl	UART_SelectSingleWireMode
	.p2align	1
	.type	UART_SelectSingleWireMode,%function
	.code	16                      @ @UART_SelectSingleWireMode
	.thumb_func
UART_SelectSingleWireMode:
.Lfunc_begin14:
	.loc	4 643 0 is_stmt 1       @ ../../Library/Nuvoton/M251_252_Series/StdDriver/src/uart.c:643:0
	.fnstart
	.cfi_startproc
@ %bb.0:
	.pad	#4
	sub	sp, #4
	.cfi_def_cfa_offset 4
	str	r0, [sp]
.Ltmp162:
	.loc	4 646 23 prologue_end   @ ../../Library/Nuvoton/M251_252_Series/StdDriver/src/uart.c:646:23
	ldr	r0, [sp]
	.loc	4 646 29 is_stmt 0      @ ../../Library/Nuvoton/M251_252_Series/StdDriver/src/uart.c:646:29
	ldr	r0, [r0, #48]
	movs	r1, #4
	.loc	4 646 37                @ ../../Library/Nuvoton/M251_252_Series/StdDriver/src/uart.c:646:37
	orrs	r0, r1
	movs	r1, #3
	.loc	4 646 68                @ ../../Library/Nuvoton/M251_252_Series/StdDriver/src/uart.c:646:68
	bics	r0, r1
	.loc	4 646 5                 @ ../../Library/Nuvoton/M251_252_Series/StdDriver/src/uart.c:646:5
	ldr	r1, [sp]
	.loc	4 646 19                @ ../../Library/Nuvoton/M251_252_Series/StdDriver/src/uart.c:646:19
	str	r0, [r1, #48]
	.loc	4 648 1 is_stmt 1       @ ../../Library/Nuvoton/M251_252_Series/StdDriver/src/uart.c:648:1
	add	sp, #4
	bx	lr
.Ltmp163:
.Lfunc_end14:
	.size	UART_SelectSingleWireMode, .Lfunc_end14-UART_SelectSingleWireMode
	.cfi_endproc
	.cantunwind
	.fnend
                                        @ -- End function
	.type	.L__const.UART_Open.au32ClkTbl,%object @ @__const.UART_Open.au32ClkTbl
	.section	.rodata..L__const.UART_Open.au32ClkTbl,"a",%progbits
	.p2align	2
.L__const.UART_Open.au32ClkTbl:
	.long	12000000                @ 0xb71b00
	.long	0                       @ 0x0
	.long	32768                   @ 0x8000
	.long	48000000                @ 0x2dc6c00
	.long	0                       @ 0x0
	.long	38400                   @ 0x9600
	.size	.L__const.UART_Open.au32ClkTbl, 24

	.type	.L__const.UART_SetLine_Config.au32ClkTbl,%object @ @__const.UART_SetLine_Config.au32ClkTbl
	.section	.rodata..L__const.UART_SetLine_Config.au32ClkTbl,"a",%progbits
	.p2align	2
.L__const.UART_SetLine_Config.au32ClkTbl:
	.long	12000000                @ 0xb71b00
	.long	0                       @ 0x0
	.long	32768                   @ 0x8000
	.long	48000000                @ 0x2dc6c00
	.long	0                       @ 0x0
	.long	38400                   @ 0x9600
	.size	.L__const.UART_SetLine_Config.au32ClkTbl, 24

	.type	.L__const.UART_SelectIrDAMode.au32ClkTbl,%object @ @__const.UART_SelectIrDAMode.au32ClkTbl
	.section	.rodata..L__const.UART_SelectIrDAMode.au32ClkTbl,"a",%progbits
	.p2align	2
.L__const.UART_SelectIrDAMode.au32ClkTbl:
	.long	12000000                @ 0xb71b00
	.long	0                       @ 0x0
	.long	32768                   @ 0x8000
	.long	48000000                @ 0x2dc6c00
	.long	0                       @ 0x0
	.long	38400                   @ 0x9600
	.size	.L__const.UART_SelectIrDAMode.au32ClkTbl, 24

	.section	".note.GNU-stack","",%progbits
	.eabi_attribute	30, 6	@ Tag_ABI_optimization_goals
	.ARM_attribute	16, 1	@ Tag_AV_eba